ARM GAS  C:\Users\25750\AppData\Local\Temp\ccY4CW3Z.s 			page 1


   1              		.cpu cortex-m7
   2              		.arch armv7e-m
   3              		.fpu fpv5-d16
   4              		.eabi_attribute 28, 1
   5              		.eabi_attribute 20, 1
   6              		.eabi_attribute 21, 1
   7              		.eabi_attribute 23, 3
   8              		.eabi_attribute 24, 1
   9              		.eabi_attribute 25, 1
  10              		.eabi_attribute 26, 1
  11              		.eabi_attribute 30, 1
  12              		.eabi_attribute 34, 1
  13              		.eabi_attribute 18, 4
  14              		.file	"main.c"
  15              		.text
  16              	.Ltext0:
  17              		.cfi_sections	.debug_frame
  18              		.section	.text.MPU_Config,"ax",%progbits
  19              		.align	1
  20              		.syntax unified
  21              		.thumb
  22              		.thumb_func
  24              	MPU_Config:
  25              	.LFB156:
  26              		.file 1 "Core/Src/main.c"
   1:Core/Src/main.c **** /* USER CODE BEGIN Header */
   2:Core/Src/main.c **** /**
   3:Core/Src/main.c ****   ******************************************************************************
   4:Core/Src/main.c ****   * @file           : main.c
   5:Core/Src/main.c ****   * @brief          : Main program body
   6:Core/Src/main.c ****   ******************************************************************************
   7:Core/Src/main.c ****   * @attention
   8:Core/Src/main.c ****   *
   9:Core/Src/main.c ****   * Copyright (c) 2024 STMicroelectronics.
  10:Core/Src/main.c ****   * All rights reserved.
  11:Core/Src/main.c ****   *
  12:Core/Src/main.c ****   * This software is licensed under terms that can be found in the LICENSE file
  13:Core/Src/main.c ****   * in the root directory of this software component.
  14:Core/Src/main.c ****   * If no LICENSE file comes with this software, it is provided AS-IS.
  15:Core/Src/main.c ****   *
  16:Core/Src/main.c ****   ******************************************************************************
  17:Core/Src/main.c ****   */
  18:Core/Src/main.c **** /* USER CODE END Header */
  19:Core/Src/main.c **** /* Includes ------------------------------------------------------------------*/
  20:Core/Src/main.c **** #include "main.h"
  21:Core/Src/main.c **** #include "cmsis_os.h"
  22:Core/Src/main.c **** #include "dma.h"
  23:Core/Src/main.c **** #include "i2c.h"
  24:Core/Src/main.c **** #include "memorymap.h"
  25:Core/Src/main.c **** #include "tim.h"
  26:Core/Src/main.c **** #include "usart.h"
  27:Core/Src/main.c **** #include "gpio.h"
  28:Core/Src/main.c **** 
  29:Core/Src/main.c **** /* Private includes ----------------------------------------------------------*/
  30:Core/Src/main.c **** /* USER CODE BEGIN Includes */
  31:Core/Src/main.c **** #include "MPU9250.h"
  32:Core/Src/main.c **** #include "servo_control.h"
ARM GAS  C:\Users\25750\AppData\Local\Temp\ccY4CW3Z.s 			page 2


  33:Core/Src/main.c **** #include "string.h"
  34:Core/Src/main.c **** #include "stdio.h"
  35:Core/Src/main.c **** #include <stdint.h>
  36:Core/Src/main.c **** #include <math.h>
  37:Core/Src/main.c **** #include <stdbool.h>
  38:Core/Src/main.c **** /* USER CODE END Includes */
  39:Core/Src/main.c **** 
  40:Core/Src/main.c **** /* Private typedef -----------------------------------------------------------*/
  41:Core/Src/main.c **** /* USER CODE BEGIN PTD */
  42:Core/Src/main.c **** 
  43:Core/Src/main.c **** /* USER CODE END PTD */
  44:Core/Src/main.c **** 
  45:Core/Src/main.c **** /* Private define ------------------------------------------------------------*/
  46:Core/Src/main.c **** /* USER CODE BEGIN PD */
  47:Core/Src/main.c **** #define MPU9250_ADDRESS 0x68 // æˆ? 0x69
  48:Core/Src/main.c **** #define BMP280_ADDRESS 0x76 // æˆ? 0x77
  49:Core/Src/main.c **** 
  50:Core/Src/main.c **** /* USER CODE END PD */
  51:Core/Src/main.c **** 
  52:Core/Src/main.c **** /* Private macro -------------------------------------------------------------*/
  53:Core/Src/main.c **** /* USER CODE BEGIN PM */
  54:Core/Src/main.c **** 
  55:Core/Src/main.c **** 
  56:Core/Src/main.c **** /* USER CODE END PM */
  57:Core/Src/main.c **** 
  58:Core/Src/main.c **** /* Private variables ---------------------------------------------------------*/
  59:Core/Src/main.c **** 
  60:Core/Src/main.c **** /* USER CODE BEGIN PV */
  61:Core/Src/main.c **** 
  62:Core/Src/main.c ****   char buffer[128];
  63:Core/Src/main.c **** 
  64:Core/Src/main.c **** /* USER CODE END PV */
  65:Core/Src/main.c **** 
  66:Core/Src/main.c **** /* Private function prototypes -----------------------------------------------*/
  67:Core/Src/main.c **** void SystemClock_Config(void);
  68:Core/Src/main.c **** static void MPU_Config(void);
  69:Core/Src/main.c **** void MX_FREERTOS_Init(void);
  70:Core/Src/main.c **** /* USER CODE BEGIN PFP */
  71:Core/Src/main.c **** 
  72:Core/Src/main.c **** /* USER CODE END PFP */
  73:Core/Src/main.c **** 
  74:Core/Src/main.c **** /* Private user code ---------------------------------------------------------*/
  75:Core/Src/main.c **** /* USER CODE BEGIN 0 */
  76:Core/Src/main.c **** 
  77:Core/Src/main.c **** int fputc(int ch,FILE *f)
  78:Core/Src/main.c **** {
  79:Core/Src/main.c **** 	HAL_UART_Transmit(&huart1,(uint8_t*)&ch,1,10);
  80:Core/Src/main.c **** 	return ch;
  81:Core/Src/main.c **** }
  82:Core/Src/main.c **** int fgetc(FILE *f)
  83:Core/Src/main.c **** {
  84:Core/Src/main.c **** 	int ch;
  85:Core/Src/main.c **** 	if(HAL_UART_Receive_IT(&huart1,(uint8_t*)&ch,1) == HAL_OK)
  86:Core/Src/main.c **** 	return ch;
  87:Core/Src/main.c **** 	else return EOF;
  88:Core/Src/main.c **** }
  89:Core/Src/main.c **** 
ARM GAS  C:\Users\25750\AppData\Local\Temp\ccY4CW3Z.s 			page 3


  90:Core/Src/main.c **** 
  91:Core/Src/main.c **** 
  92:Core/Src/main.c **** 
  93:Core/Src/main.c **** void scan_I2C_bus(void) {
  94:Core/Src/main.c ****     HAL_UART_Transmit(&huart1, (uint8_t*)"Scanning I2C bus...\r\n", 22, 1000);   
  95:Core/Src/main.c ****     for (uint8_t address = 0x03; address < 0xD0; address++) {
  96:Core/Src/main.c ****         // å‘é?ä¸€ä¸ªç©ºæ•°æ®åŒ…ï¼Œæ¥æŽ¢æµ‹è¯¥åœ°å€æ˜¯å¦æœ‰è®¾å¤‡å“åº?
  97:Core/Src/main.c ****         if (HAL_I2C_IsDeviceReady(&hi2c1, address << 1, 1, 10) == HAL_OK) {
  98:Core/Src/main.c ****             char tbuffer[256];  // ä¸´æ—¶ç¼“å†²åŒ?
  99:Core/Src/main.c ****             int len = snprintf(tbuffer, sizeof(tbuffer), "Device found at address 0x%02X\r\n", addr
 100:Core/Src/main.c ****             HAL_UART_Transmit(&huart1, (uint8_t*)tbuffer, len, 1500);
 101:Core/Src/main.c ****             //HAL_Delay(100);
 102:Core/Src/main.c ****         }
 103:Core/Src/main.c ****     }
 104:Core/Src/main.c ****     
 105:Core/Src/main.c ****     HAL_UART_Transmit(&huart1, (uint8_t*)"Scan complete.\r\n", 16, 1000); 
 106:Core/Src/main.c **** }
 107:Core/Src/main.c **** 
 108:Core/Src/main.c **** 
 109:Core/Src/main.c **** /* USER CODE END 0 */
 110:Core/Src/main.c **** 
 111:Core/Src/main.c **** /**
 112:Core/Src/main.c ****   * @brief  The application entry point.
 113:Core/Src/main.c ****   * @retval int
 114:Core/Src/main.c ****   */
 115:Core/Src/main.c **** int main(void)
 116:Core/Src/main.c **** {
 117:Core/Src/main.c **** 
 118:Core/Src/main.c ****   /* USER CODE BEGIN 1 */
 119:Core/Src/main.c **** 
 120:Core/Src/main.c ****   /* USER CODE END 1 */
 121:Core/Src/main.c **** 
 122:Core/Src/main.c ****   /* MPU Configuration--------------------------------------------------------*/
 123:Core/Src/main.c ****   MPU_Config();
 124:Core/Src/main.c **** 
 125:Core/Src/main.c ****   /* MCU Configuration--------------------------------------------------------*/
 126:Core/Src/main.c **** 
 127:Core/Src/main.c ****   /* Reset of all peripherals, Initializes the Flash interface and the Systick. */
 128:Core/Src/main.c ****   HAL_Init();
 129:Core/Src/main.c **** 
 130:Core/Src/main.c ****   /* USER CODE BEGIN Init */
 131:Core/Src/main.c **** 
 132:Core/Src/main.c ****   /* USER CODE END Init */
 133:Core/Src/main.c **** 
 134:Core/Src/main.c ****   /* Configure the system clock */
 135:Core/Src/main.c ****   SystemClock_Config();
 136:Core/Src/main.c **** 
 137:Core/Src/main.c ****   /* USER CODE BEGIN SysInit */
 138:Core/Src/main.c **** 
 139:Core/Src/main.c ****   /* USER CODE END SysInit */
 140:Core/Src/main.c **** 
 141:Core/Src/main.c ****   /* Initialize all configured peripherals */
 142:Core/Src/main.c ****   MX_GPIO_Init();
 143:Core/Src/main.c ****   MX_DMA_Init();
 144:Core/Src/main.c ****   MX_TIM5_Init();
 145:Core/Src/main.c ****   MX_TIM8_Init();
 146:Core/Src/main.c ****   MX_TIM12_Init();
ARM GAS  C:\Users\25750\AppData\Local\Temp\ccY4CW3Z.s 			page 4


 147:Core/Src/main.c ****   MX_TIM13_Init();
 148:Core/Src/main.c ****   MX_TIM14_Init();
 149:Core/Src/main.c ****   MX_TIM15_Init();
 150:Core/Src/main.c ****   MX_TIM16_Init();
 151:Core/Src/main.c ****   MX_TIM17_Init();
 152:Core/Src/main.c ****   MX_I2C1_Init();
 153:Core/Src/main.c ****   MX_USART1_UART_Init();
 154:Core/Src/main.c ****   MX_TIM3_Init();
 155:Core/Src/main.c ****   MX_TIM4_Init();
 156:Core/Src/main.c ****   /* USER CODE BEGIN 2 */
 157:Core/Src/main.c ****   //I2C_Scan();
 158:Core/Src/main.c ****   //scan_I2C_bus();
 159:Core/Src/main.c **** 
 160:Core/Src/main.c **** 
 161:Core/Src/main.c **** 
 162:Core/Src/main.c ****  Servo_Init();
 163:Core/Src/main.c ****       
 164:Core/Src/main.c ****  
 165:Core/Src/main.c ****    // åˆå§‹åŒ? MPU9250 ä¼ æ„Ÿå™?
 166:Core/Src/main.c ****     MPU9250_Init();
 167:Core/Src/main.c ****     // è®¾ç½®ä¼ æ„Ÿå™¨çš„é…ç½®å‚æ•°
 168:Core/Src/main.c ****     MPU9250_SetAccelRange(ACCEL_RANGE_4G);    // è®¾ç½®åŠ é?Ÿåº¦è®¡é‡ç¨‹ä¸º 4G
 169:Core/Src/main.c ****     MPU9250_SetGyroRange(GYRO_RANGE_500DPS);  // è®¾ç½®é™?èžºä»ªé‡ç¨‹ä¸? 500DPS
 170:Core/Src/main.c ****     MPU9250_SetDLPFBandwidth(DLPF_BANDWIDTH_92HZ); // è®¾ç½®ä½Žé?šæ»¤æ³¢å¸¦å®½ä¸º 92Hz
 171:Core/Src/main.c ****     MPU9250_SetSampleRateDivider(LP_ACCEL_ODR_125HZ); // è®¾ç½®é‡‡æ ·çŽ‡ä¸º 125Hz
 172:Core/Src/main.c **** 
 173:Core/Src/main.c **** 
 174:Core/Src/main.c ****   // å®šä¹‰æ•°æ®å­˜å‚¨å˜é‡
 175:Core/Src/main.c ****   int16_t AccData0[3] = {0};
 176:Core/Src/main.c ****   int16_t MagData0[3] = {0};
 177:Core/Src/main.c ****   int16_t GyroData0[3] = {0};
 178:Core/Src/main.c ****   float TempData0 = 0.0;
 179:Core/Src/main.c **** 
 180:Core/Src/main.c ****   MPU9250_GetData(AccData0, MagData0, GyroData0, &TempData0);
 181:Core/Src/main.c ****   int len = snprintf(buffer, sizeof(buffer), "MagData: X=%d, Y=%d, Z=%d\n", MagData0[0], MagData0[1
 182:Core/Src/main.c ****  
 183:Core/Src/main.c ****   //HAL_UART_Transmit(&huart1, (uint8_t*)buffer, len, HAL_MAX_DELAY);
 184:Core/Src/main.c ****   
 185:Core/Src/main.c **** 
 186:Core/Src/main.c **** 
 187:Core/Src/main.c ****   len = snprintf(buffer, sizeof(buffer), "MagData: X=%d, Y=%d, Z=%d\n", MagData0[0], MagData0[1], M
 188:Core/Src/main.c ****   //HAL_UART_Transmit(&huart1, (uint8_t*)buffer, len, HAL_MAX_DELAY);
 189:Core/Src/main.c **** 
 190:Core/Src/main.c ****   /* USER CODE END 2 */
 191:Core/Src/main.c **** 
 192:Core/Src/main.c ****   /* Init scheduler */
 193:Core/Src/main.c ****   osKernelInitialize();
 194:Core/Src/main.c **** 
 195:Core/Src/main.c ****   /* Call init function for freertos objects (in cmsis_os2.c) */
 196:Core/Src/main.c ****   MX_FREERTOS_Init();
 197:Core/Src/main.c **** 
 198:Core/Src/main.c ****   /* Start scheduler */
 199:Core/Src/main.c ****   osKernelStart();
 200:Core/Src/main.c **** 
 201:Core/Src/main.c ****   /* We should never get here as control is now taken by the scheduler */
 202:Core/Src/main.c **** 
 203:Core/Src/main.c ****   /* Infinite loop */
ARM GAS  C:\Users\25750\AppData\Local\Temp\ccY4CW3Z.s 			page 5


 204:Core/Src/main.c ****   /* USER CODE BEGIN WHILE */
 205:Core/Src/main.c ****   while (1)
 206:Core/Src/main.c ****   {
 207:Core/Src/main.c ****      // MPU9250_GetData(AccData0, MagData0, GyroData0, &TempData0);
 208:Core/Src/main.c ****     int len = snprintf(buffer, sizeof(buffer), "MagData: X=%d, Y=%d, Z=%d\n", MagData0[0], MagData0
 209:Core/Src/main.c **** 
 210:Core/Src/main.c ****   //HAL_UART_Transmit(&huart1, (uint8_t*)buffer, len, HAL_MAX_DELAY);
 211:Core/Src/main.c ****   
 212:Core/Src/main.c ****   //MPU9250_GetData(AccData0, MagData0, GyroData0, &TempData0);
 213:Core/Src/main.c ****  
 214:Core/Src/main.c ****   len = snprintf(buffer, sizeof(buffer), "MagData: X=%d, Y=%d, Z=%d\n", MagData0[0], MagData0[1], M
 215:Core/Src/main.c ****   //HAL_UART_Transmit(&huart1, (uint8_t*)buffer, len, HAL_MAX_DELAY);
 216:Core/Src/main.c ****     /* USER CODE END WHILE */
 217:Core/Src/main.c **** 
 218:Core/Src/main.c ****     /* USER CODE BEGIN 3 */
 219:Core/Src/main.c ****   }
 220:Core/Src/main.c ****   /* USER CODE END 3 */
 221:Core/Src/main.c **** }
 222:Core/Src/main.c **** 
 223:Core/Src/main.c **** /**
 224:Core/Src/main.c ****   * @brief System Clock Configuration
 225:Core/Src/main.c ****   * @retval None
 226:Core/Src/main.c ****   */
 227:Core/Src/main.c **** void SystemClock_Config(void)
 228:Core/Src/main.c **** {
 229:Core/Src/main.c ****   RCC_OscInitTypeDef RCC_OscInitStruct = {0};
 230:Core/Src/main.c ****   RCC_ClkInitTypeDef RCC_ClkInitStruct = {0};
 231:Core/Src/main.c **** 
 232:Core/Src/main.c ****   /** Supply configuration update enable
 233:Core/Src/main.c ****   */
 234:Core/Src/main.c ****   HAL_PWREx_ConfigSupply(PWR_LDO_SUPPLY);
 235:Core/Src/main.c **** 
 236:Core/Src/main.c ****   /** Configure the main internal regulator output voltage
 237:Core/Src/main.c ****   */
 238:Core/Src/main.c ****   __HAL_PWR_VOLTAGESCALING_CONFIG(PWR_REGULATOR_VOLTAGE_SCALE1);
 239:Core/Src/main.c **** 
 240:Core/Src/main.c ****   while(!__HAL_PWR_GET_FLAG(PWR_FLAG_VOSRDY)) {}
 241:Core/Src/main.c **** 
 242:Core/Src/main.c ****   __HAL_RCC_SYSCFG_CLK_ENABLE();
 243:Core/Src/main.c ****   __HAL_PWR_VOLTAGESCALING_CONFIG(PWR_REGULATOR_VOLTAGE_SCALE0);
 244:Core/Src/main.c **** 
 245:Core/Src/main.c ****   while(!__HAL_PWR_GET_FLAG(PWR_FLAG_VOSRDY)) {}
 246:Core/Src/main.c **** 
 247:Core/Src/main.c ****   /** Initializes the RCC Oscillators according to the specified parameters
 248:Core/Src/main.c ****   * in the RCC_OscInitTypeDef structure.
 249:Core/Src/main.c ****   */
 250:Core/Src/main.c ****   RCC_OscInitStruct.OscillatorType = RCC_OSCILLATORTYPE_HSE;
 251:Core/Src/main.c ****   RCC_OscInitStruct.HSEState = RCC_HSE_ON;
 252:Core/Src/main.c ****   RCC_OscInitStruct.PLL.PLLState = RCC_PLL_ON;
 253:Core/Src/main.c ****   RCC_OscInitStruct.PLL.PLLSource = RCC_PLLSOURCE_HSE;
 254:Core/Src/main.c ****   RCC_OscInitStruct.PLL.PLLM = 5;
 255:Core/Src/main.c ****   RCC_OscInitStruct.PLL.PLLN = 192;
 256:Core/Src/main.c ****   RCC_OscInitStruct.PLL.PLLP = 2;
 257:Core/Src/main.c ****   RCC_OscInitStruct.PLL.PLLQ = 2;
 258:Core/Src/main.c ****   RCC_OscInitStruct.PLL.PLLR = 2;
 259:Core/Src/main.c ****   RCC_OscInitStruct.PLL.PLLRGE = RCC_PLL1VCIRANGE_2;
 260:Core/Src/main.c ****   RCC_OscInitStruct.PLL.PLLVCOSEL = RCC_PLL1VCOWIDE;
ARM GAS  C:\Users\25750\AppData\Local\Temp\ccY4CW3Z.s 			page 6


 261:Core/Src/main.c ****   RCC_OscInitStruct.PLL.PLLFRACN = 0;
 262:Core/Src/main.c ****   if (HAL_RCC_OscConfig(&RCC_OscInitStruct) != HAL_OK)
 263:Core/Src/main.c ****   {
 264:Core/Src/main.c ****     Error_Handler();
 265:Core/Src/main.c ****   }
 266:Core/Src/main.c **** 
 267:Core/Src/main.c ****   /** Initializes the CPU, AHB and APB buses clocks
 268:Core/Src/main.c ****   */
 269:Core/Src/main.c ****   RCC_ClkInitStruct.ClockType = RCC_CLOCKTYPE_HCLK|RCC_CLOCKTYPE_SYSCLK
 270:Core/Src/main.c ****                               |RCC_CLOCKTYPE_PCLK1|RCC_CLOCKTYPE_PCLK2
 271:Core/Src/main.c ****                               |RCC_CLOCKTYPE_D3PCLK1|RCC_CLOCKTYPE_D1PCLK1;
 272:Core/Src/main.c ****   RCC_ClkInitStruct.SYSCLKSource = RCC_SYSCLKSOURCE_PLLCLK;
 273:Core/Src/main.c ****   RCC_ClkInitStruct.SYSCLKDivider = RCC_SYSCLK_DIV1;
 274:Core/Src/main.c ****   RCC_ClkInitStruct.AHBCLKDivider = RCC_HCLK_DIV2;
 275:Core/Src/main.c ****   RCC_ClkInitStruct.APB3CLKDivider = RCC_APB3_DIV2;
 276:Core/Src/main.c ****   RCC_ClkInitStruct.APB1CLKDivider = RCC_APB1_DIV2;
 277:Core/Src/main.c ****   RCC_ClkInitStruct.APB2CLKDivider = RCC_APB2_DIV2;
 278:Core/Src/main.c ****   RCC_ClkInitStruct.APB4CLKDivider = RCC_APB4_DIV2;
 279:Core/Src/main.c **** 
 280:Core/Src/main.c ****   if (HAL_RCC_ClockConfig(&RCC_ClkInitStruct, FLASH_LATENCY_4) != HAL_OK)
 281:Core/Src/main.c ****   {
 282:Core/Src/main.c ****     Error_Handler();
 283:Core/Src/main.c ****   }
 284:Core/Src/main.c **** }
 285:Core/Src/main.c **** 
 286:Core/Src/main.c **** /* USER CODE BEGIN 4 */
 287:Core/Src/main.c **** 
 288:Core/Src/main.c **** /* USER CODE END 4 */
 289:Core/Src/main.c **** 
 290:Core/Src/main.c ****  /* MPU Configuration */
 291:Core/Src/main.c **** 
 292:Core/Src/main.c **** void MPU_Config(void)
 293:Core/Src/main.c **** {
  27              		.loc 1 293 1 view -0
  28              		.cfi_startproc
  29              		@ args = 0, pretend = 0, frame = 16
  30              		@ frame_needed = 0, uses_anonymous_args = 0
  31 0000 10B5     		push	{r4, lr}
  32              	.LCFI0:
  33              		.cfi_def_cfa_offset 8
  34              		.cfi_offset 4, -8
  35              		.cfi_offset 14, -4
  36 0002 84B0     		sub	sp, sp, #16
  37              	.LCFI1:
  38              		.cfi_def_cfa_offset 24
 294:Core/Src/main.c ****   MPU_Region_InitTypeDef MPU_InitStruct = {0};
  39              		.loc 1 294 3 view .LVU1
  40              		.loc 1 294 26 is_stmt 0 view .LVU2
  41 0004 0024     		movs	r4, #0
  42 0006 0094     		str	r4, [sp]
  43 0008 0194     		str	r4, [sp, #4]
  44 000a 0294     		str	r4, [sp, #8]
  45 000c 0394     		str	r4, [sp, #12]
 295:Core/Src/main.c **** 
 296:Core/Src/main.c ****   /* Disables the MPU */
 297:Core/Src/main.c ****   HAL_MPU_Disable();
  46              		.loc 1 297 3 is_stmt 1 view .LVU3
ARM GAS  C:\Users\25750\AppData\Local\Temp\ccY4CW3Z.s 			page 7


  47 000e FFF7FEFF 		bl	HAL_MPU_Disable
  48              	.LVL0:
 298:Core/Src/main.c **** 
 299:Core/Src/main.c ****   /** Initializes and configures the Region and the memory to be protected
 300:Core/Src/main.c ****   */
 301:Core/Src/main.c ****   MPU_InitStruct.Enable = MPU_REGION_ENABLE;
  49              		.loc 1 301 3 view .LVU4
  50              		.loc 1 301 25 is_stmt 0 view .LVU5
  51 0012 0123     		movs	r3, #1
  52 0014 8DF80030 		strb	r3, [sp]
 302:Core/Src/main.c ****   MPU_InitStruct.Number = MPU_REGION_NUMBER0;
  53              		.loc 1 302 3 is_stmt 1 view .LVU6
  54              		.loc 1 302 25 is_stmt 0 view .LVU7
  55 0018 8DF80140 		strb	r4, [sp, #1]
 303:Core/Src/main.c ****   MPU_InitStruct.BaseAddress = 0x0;
  56              		.loc 1 303 3 is_stmt 1 view .LVU8
  57              		.loc 1 303 30 is_stmt 0 view .LVU9
  58 001c 0194     		str	r4, [sp, #4]
 304:Core/Src/main.c ****   MPU_InitStruct.Size = MPU_REGION_SIZE_4GB;
  59              		.loc 1 304 3 is_stmt 1 view .LVU10
  60              		.loc 1 304 23 is_stmt 0 view .LVU11
  61 001e 1F22     		movs	r2, #31
  62 0020 8DF80820 		strb	r2, [sp, #8]
 305:Core/Src/main.c ****   MPU_InitStruct.SubRegionDisable = 0x87;
  63              		.loc 1 305 3 is_stmt 1 view .LVU12
  64              		.loc 1 305 35 is_stmt 0 view .LVU13
  65 0024 8722     		movs	r2, #135
  66 0026 8DF80920 		strb	r2, [sp, #9]
 306:Core/Src/main.c ****   MPU_InitStruct.TypeExtField = MPU_TEX_LEVEL0;
  67              		.loc 1 306 3 is_stmt 1 view .LVU14
  68              		.loc 1 306 31 is_stmt 0 view .LVU15
  69 002a 8DF80A40 		strb	r4, [sp, #10]
 307:Core/Src/main.c ****   MPU_InitStruct.AccessPermission = MPU_REGION_NO_ACCESS;
  70              		.loc 1 307 3 is_stmt 1 view .LVU16
  71              		.loc 1 307 35 is_stmt 0 view .LVU17
  72 002e 8DF80B40 		strb	r4, [sp, #11]
 308:Core/Src/main.c ****   MPU_InitStruct.DisableExec = MPU_INSTRUCTION_ACCESS_DISABLE;
  73              		.loc 1 308 3 is_stmt 1 view .LVU18
  74              		.loc 1 308 30 is_stmt 0 view .LVU19
  75 0032 8DF80C30 		strb	r3, [sp, #12]
 309:Core/Src/main.c ****   MPU_InitStruct.IsShareable = MPU_ACCESS_SHAREABLE;
  76              		.loc 1 309 3 is_stmt 1 view .LVU20
  77              		.loc 1 309 30 is_stmt 0 view .LVU21
  78 0036 8DF80D30 		strb	r3, [sp, #13]
 310:Core/Src/main.c ****   MPU_InitStruct.IsCacheable = MPU_ACCESS_NOT_CACHEABLE;
  79              		.loc 1 310 3 is_stmt 1 view .LVU22
  80              		.loc 1 310 30 is_stmt 0 view .LVU23
  81 003a 8DF80E40 		strb	r4, [sp, #14]
 311:Core/Src/main.c ****   MPU_InitStruct.IsBufferable = MPU_ACCESS_NOT_BUFFERABLE;
  82              		.loc 1 311 3 is_stmt 1 view .LVU24
  83              		.loc 1 311 31 is_stmt 0 view .LVU25
  84 003e 8DF80F40 		strb	r4, [sp, #15]
 312:Core/Src/main.c **** 
 313:Core/Src/main.c ****   HAL_MPU_ConfigRegion(&MPU_InitStruct);
  85              		.loc 1 313 3 is_stmt 1 view .LVU26
  86 0042 6846     		mov	r0, sp
  87 0044 FFF7FEFF 		bl	HAL_MPU_ConfigRegion
ARM GAS  C:\Users\25750\AppData\Local\Temp\ccY4CW3Z.s 			page 8


  88              	.LVL1:
 314:Core/Src/main.c ****   /* Enables the MPU */
 315:Core/Src/main.c ****   HAL_MPU_Enable(MPU_PRIVILEGED_DEFAULT);
  89              		.loc 1 315 3 view .LVU27
  90 0048 0420     		movs	r0, #4
  91 004a FFF7FEFF 		bl	HAL_MPU_Enable
  92              	.LVL2:
 316:Core/Src/main.c **** 
 317:Core/Src/main.c **** }
  93              		.loc 1 317 1 is_stmt 0 view .LVU28
  94 004e 04B0     		add	sp, sp, #16
  95              	.LCFI2:
  96              		.cfi_def_cfa_offset 8
  97              		@ sp needed
  98 0050 10BD     		pop	{r4, pc}
  99              		.cfi_endproc
 100              	.LFE156:
 102              		.section	.text.fputc,"ax",%progbits
 103              		.align	1
 104              		.global	fputc
 105              		.syntax unified
 106              		.thumb
 107              		.thumb_func
 109              	fputc:
 110              	.LVL3:
 111              	.LFB151:
  78:Core/Src/main.c **** 	HAL_UART_Transmit(&huart1,(uint8_t*)&ch,1,10);
 112              		.loc 1 78 1 is_stmt 1 view -0
 113              		.cfi_startproc
 114              		@ args = 0, pretend = 0, frame = 8
 115              		@ frame_needed = 0, uses_anonymous_args = 0
  78:Core/Src/main.c **** 	HAL_UART_Transmit(&huart1,(uint8_t*)&ch,1,10);
 116              		.loc 1 78 1 is_stmt 0 view .LVU30
 117 0000 00B5     		push	{lr}
 118              	.LCFI3:
 119              		.cfi_def_cfa_offset 4
 120              		.cfi_offset 14, -4
 121 0002 83B0     		sub	sp, sp, #12
 122              	.LCFI4:
 123              		.cfi_def_cfa_offset 16
 124 0004 0190     		str	r0, [sp, #4]
  79:Core/Src/main.c **** 	return ch;
 125              		.loc 1 79 2 is_stmt 1 view .LVU31
 126 0006 0A23     		movs	r3, #10
 127 0008 0122     		movs	r2, #1
 128 000a 01A9     		add	r1, sp, #4
 129              	.LVL4:
  79:Core/Src/main.c **** 	return ch;
 130              		.loc 1 79 2 is_stmt 0 view .LVU32
 131 000c 0348     		ldr	r0, .L5
 132              	.LVL5:
  79:Core/Src/main.c **** 	return ch;
 133              		.loc 1 79 2 view .LVU33
 134 000e FFF7FEFF 		bl	HAL_UART_Transmit
 135              	.LVL6:
  80:Core/Src/main.c **** }
 136              		.loc 1 80 2 is_stmt 1 view .LVU34
ARM GAS  C:\Users\25750\AppData\Local\Temp\ccY4CW3Z.s 			page 9


  81:Core/Src/main.c **** int fgetc(FILE *f)
 137              		.loc 1 81 1 is_stmt 0 view .LVU35
 138 0012 0198     		ldr	r0, [sp, #4]
 139 0014 03B0     		add	sp, sp, #12
 140              	.LCFI5:
 141              		.cfi_def_cfa_offset 4
 142              		@ sp needed
 143 0016 5DF804FB 		ldr	pc, [sp], #4
 144              	.L6:
 145 001a 00BF     		.align	2
 146              	.L5:
 147 001c 00000000 		.word	huart1
 148              		.cfi_endproc
 149              	.LFE151:
 151              		.section	.text.fgetc,"ax",%progbits
 152              		.align	1
 153              		.global	fgetc
 154              		.syntax unified
 155              		.thumb
 156              		.thumb_func
 158              	fgetc:
 159              	.LVL7:
 160              	.LFB152:
  83:Core/Src/main.c **** 	int ch;
 161              		.loc 1 83 1 is_stmt 1 view -0
 162              		.cfi_startproc
 163              		@ args = 0, pretend = 0, frame = 8
 164              		@ frame_needed = 0, uses_anonymous_args = 0
  83:Core/Src/main.c **** 	int ch;
 165              		.loc 1 83 1 is_stmt 0 view .LVU37
 166 0000 00B5     		push	{lr}
 167              	.LCFI6:
 168              		.cfi_def_cfa_offset 4
 169              		.cfi_offset 14, -4
 170 0002 83B0     		sub	sp, sp, #12
 171              	.LCFI7:
 172              		.cfi_def_cfa_offset 16
  84:Core/Src/main.c **** 	if(HAL_UART_Receive_IT(&huart1,(uint8_t*)&ch,1) == HAL_OK)
 173              		.loc 1 84 2 is_stmt 1 view .LVU38
  85:Core/Src/main.c **** 	return ch;
 174              		.loc 1 85 2 view .LVU39
  85:Core/Src/main.c **** 	return ch;
 175              		.loc 1 85 5 is_stmt 0 view .LVU40
 176 0004 0122     		movs	r2, #1
 177 0006 01A9     		add	r1, sp, #4
 178 0008 0548     		ldr	r0, .L11
 179              	.LVL8:
  85:Core/Src/main.c **** 	return ch;
 180              		.loc 1 85 5 view .LVU41
 181 000a FFF7FEFF 		bl	HAL_UART_Receive_IT
 182              	.LVL9:
  85:Core/Src/main.c **** 	return ch;
 183              		.loc 1 85 4 view .LVU42
 184 000e 18B9     		cbnz	r0, .L9
  86:Core/Src/main.c **** 	else return EOF;
 185              		.loc 1 86 2 is_stmt 1 view .LVU43
  86:Core/Src/main.c **** 	else return EOF;
ARM GAS  C:\Users\25750\AppData\Local\Temp\ccY4CW3Z.s 			page 10


 186              		.loc 1 86 9 is_stmt 0 view .LVU44
 187 0010 0198     		ldr	r0, [sp, #4]
 188              	.L7:
  88:Core/Src/main.c **** 
 189              		.loc 1 88 1 view .LVU45
 190 0012 03B0     		add	sp, sp, #12
 191              	.LCFI8:
 192              		.cfi_remember_state
 193              		.cfi_def_cfa_offset 4
 194              		@ sp needed
 195 0014 5DF804FB 		ldr	pc, [sp], #4
 196              	.L9:
 197              	.LCFI9:
 198              		.cfi_restore_state
  87:Core/Src/main.c **** }
 199              		.loc 1 87 14 view .LVU46
 200 0018 4FF0FF30 		mov	r0, #-1
 201 001c F9E7     		b	.L7
 202              	.L12:
 203 001e 00BF     		.align	2
 204              	.L11:
 205 0020 00000000 		.word	huart1
 206              		.cfi_endproc
 207              	.LFE152:
 209              		.section	.rodata.scan_I2C_bus.str1.4,"aMS",%progbits,1
 210              		.align	2
 211              	.LC0:
 212 0000 5363616E 		.ascii	"Scanning I2C bus...\015\012\000"
 212      6E696E67 
 212      20493243 
 212      20627573 
 212      2E2E2E0D 
 213 0016 0000     		.align	2
 214              	.LC1:
 215 0018 44657669 		.ascii	"Device found at address 0x%02X\015\012\000"
 215      63652066 
 215      6F756E64 
 215      20617420 
 215      61646472 
 216 0039 000000   		.align	2
 217              	.LC2:
 218 003c 5363616E 		.ascii	"Scan complete.\015\012\000"
 218      20636F6D 
 218      706C6574 
 218      652E0D0A 
 218      00
 219              		.section	.text.scan_I2C_bus,"ax",%progbits
 220              		.align	1
 221              		.global	scan_I2C_bus
 222              		.syntax unified
 223              		.thumb
 224              		.thumb_func
 226              	scan_I2C_bus:
 227              	.LFB153:
  93:Core/Src/main.c ****     HAL_UART_Transmit(&huart1, (uint8_t*)"Scanning I2C bus...\r\n", 22, 1000);   
 228              		.loc 1 93 25 is_stmt 1 view -0
 229              		.cfi_startproc
ARM GAS  C:\Users\25750\AppData\Local\Temp\ccY4CW3Z.s 			page 11


 230              		@ args = 0, pretend = 0, frame = 256
 231              		@ frame_needed = 0, uses_anonymous_args = 0
 232 0000 10B5     		push	{r4, lr}
 233              	.LCFI10:
 234              		.cfi_def_cfa_offset 8
 235              		.cfi_offset 4, -8
 236              		.cfi_offset 14, -4
 237 0002 C0B0     		sub	sp, sp, #256
 238              	.LCFI11:
 239              		.cfi_def_cfa_offset 264
  94:Core/Src/main.c ****     for (uint8_t address = 0x03; address < 0xD0; address++) {
 240              		.loc 1 94 5 view .LVU48
 241 0004 4FF47A73 		mov	r3, #1000
 242 0008 1622     		movs	r2, #22
 243 000a 1549     		ldr	r1, .L19
 244 000c 1548     		ldr	r0, .L19+4
 245 000e FFF7FEFF 		bl	HAL_UART_Transmit
 246              	.LVL10:
  95:Core/Src/main.c ****         // å‘é?ä¸€ä¸ªç©ºæ•°æ®åŒ…ï¼Œæ¥æŽ¢æµ‹è¯¥åœ°å€æ˜¯å¦æœ‰è®¾å¤‡å“åº?
 247              		.loc 1 95 5 view .LVU49
 248              	.LBB4:
  95:Core/Src/main.c ****         // å‘é?ä¸€ä¸ªç©ºæ•°æ®åŒ…ï¼Œæ¥æŽ¢æµ‹è¯¥åœ°å€æ˜¯å¦æœ‰è®¾å¤‡å“åº?
 249              		.loc 1 95 10 view .LVU50
  95:Core/Src/main.c ****         // å‘é?ä¸€ä¸ªç©ºæ•°æ®åŒ…ï¼Œæ¥æŽ¢æµ‹è¯¥åœ°å€æ˜¯å¦æœ‰è®¾å¤‡å“åº?
 250              		.loc 1 95 18 is_stmt 0 view .LVU51
 251 0012 0324     		movs	r4, #3
  95:Core/Src/main.c ****         // å‘é?ä¸€ä¸ªç©ºæ•°æ®åŒ…ï¼Œæ¥æŽ¢æµ‹è¯¥åœ°å€æ˜¯å¦æœ‰è®¾å¤‡å“åº?
 252              		.loc 1 95 5 view .LVU52
 253 0014 01E0     		b	.L14
 254              	.LVL11:
 255              	.L15:
  95:Core/Src/main.c ****         // å‘é?ä¸€ä¸ªç©ºæ•°æ®åŒ…ï¼Œæ¥æŽ¢æµ‹è¯¥åœ°å€æ˜¯å¦æœ‰è®¾å¤‡å“åº?
 256              		.loc 1 95 50 is_stmt 1 discriminator 2 view .LVU53
  95:Core/Src/main.c ****         // å‘é?ä¸€ä¸ªç©ºæ•°æ®åŒ…ï¼Œæ¥æŽ¢æµ‹è¯¥åœ°å€æ˜¯å¦æœ‰è®¾å¤‡å“åº?
 257              		.loc 1 95 57 is_stmt 0 discriminator 2 view .LVU54
 258 0016 0134     		adds	r4, r4, #1
 259              	.LVL12:
  95:Core/Src/main.c ****         // å‘é?ä¸€ä¸ªç©ºæ•°æ®åŒ…ï¼Œæ¥æŽ¢æµ‹è¯¥åœ°å€æ˜¯å¦æœ‰è®¾å¤‡å“åº?
 260              		.loc 1 95 57 discriminator 2 view .LVU55
 261 0018 E4B2     		uxtb	r4, r4
 262              	.LVL13:
 263              	.L14:
  95:Core/Src/main.c ****         // å‘é?ä¸€ä¸ªç©ºæ•°æ®åŒ…ï¼Œæ¥æŽ¢æµ‹è¯¥åœ°å€æ˜¯å¦æœ‰è®¾å¤‡å“åº?
 264              		.loc 1 95 34 is_stmt 1 discriminator 1 view .LVU56
  95:Core/Src/main.c ****         // å‘é?ä¸€ä¸ªç©ºæ•°æ®åŒ…ï¼Œæ¥æŽ¢æµ‹è¯¥åœ°å€æ˜¯å¦æœ‰è®¾å¤‡å“åº?
 265              		.loc 1 95 5 is_stmt 0 discriminator 1 view .LVU57
 266 001a CF2C     		cmp	r4, #207
 267 001c 17D8     		bhi	.L18
  97:Core/Src/main.c ****             char tbuffer[256];  // ä¸´æ—¶ç¼“å†²åŒ?
 268              		.loc 1 97 9 is_stmt 1 view .LVU58
  97:Core/Src/main.c ****             char tbuffer[256];  // ä¸´æ—¶ç¼“å†²åŒ?
 269              		.loc 1 97 13 is_stmt 0 view .LVU59
 270 001e 0A23     		movs	r3, #10
 271 0020 0122     		movs	r2, #1
 272 0022 04FA02F1 		lsl	r1, r4, r2
 273 0026 1048     		ldr	r0, .L19+8
 274 0028 FFF7FEFF 		bl	HAL_I2C_IsDeviceReady
ARM GAS  C:\Users\25750\AppData\Local\Temp\ccY4CW3Z.s 			page 12


 275              	.LVL14:
  97:Core/Src/main.c ****             char tbuffer[256];  // ä¸´æ—¶ç¼“å†²åŒ?
 276              		.loc 1 97 12 view .LVU60
 277 002c 0028     		cmp	r0, #0
 278 002e F2D1     		bne	.L15
 279              	.LBB5:
  98:Core/Src/main.c ****             int len = snprintf(tbuffer, sizeof(tbuffer), "Device found at address 0x%02X\r\n", addr
 280              		.loc 1 98 13 is_stmt 1 view .LVU61
  99:Core/Src/main.c ****             HAL_UART_Transmit(&huart1, (uint8_t*)tbuffer, len, 1500);
 281              		.loc 1 99 13 view .LVU62
  99:Core/Src/main.c ****             HAL_UART_Transmit(&huart1, (uint8_t*)tbuffer, len, 1500);
 282              		.loc 1 99 23 is_stmt 0 view .LVU63
 283 0030 2346     		mov	r3, r4
 284 0032 0E4A     		ldr	r2, .L19+12
 285 0034 4FF48071 		mov	r1, #256
 286 0038 6846     		mov	r0, sp
 287 003a FFF7FEFF 		bl	snprintf
 288              	.LVL15:
 100:Core/Src/main.c ****             //HAL_Delay(100);
 289              		.loc 1 100 13 is_stmt 1 view .LVU64
 290 003e 40F2DC53 		movw	r3, #1500
 291 0042 1E22     		movs	r2, #30
 292 0044 6946     		mov	r1, sp
 293 0046 0748     		ldr	r0, .L19+4
 294 0048 FFF7FEFF 		bl	HAL_UART_Transmit
 295              	.LVL16:
 296 004c E3E7     		b	.L15
 297              	.LVL17:
 298              	.L18:
 100:Core/Src/main.c ****             //HAL_Delay(100);
 299              		.loc 1 100 13 is_stmt 0 view .LVU65
 300              	.LBE5:
 301              	.LBE4:
 105:Core/Src/main.c **** }
 302              		.loc 1 105 5 is_stmt 1 view .LVU66
 303 004e 4FF47A73 		mov	r3, #1000
 304 0052 1022     		movs	r2, #16
 305 0054 0649     		ldr	r1, .L19+16
 306 0056 0348     		ldr	r0, .L19+4
 307 0058 FFF7FEFF 		bl	HAL_UART_Transmit
 308              	.LVL18:
 106:Core/Src/main.c **** 
 309              		.loc 1 106 1 is_stmt 0 view .LVU67
 310 005c 40B0     		add	sp, sp, #256
 311              	.LCFI12:
 312              		.cfi_def_cfa_offset 8
 313              		@ sp needed
 314 005e 10BD     		pop	{r4, pc}
 315              	.LVL19:
 316              	.L20:
 106:Core/Src/main.c **** 
 317              		.loc 1 106 1 view .LVU68
 318              		.align	2
 319              	.L19:
 320 0060 00000000 		.word	.LC0
 321 0064 00000000 		.word	huart1
 322 0068 00000000 		.word	hi2c1
ARM GAS  C:\Users\25750\AppData\Local\Temp\ccY4CW3Z.s 			page 13


 323 006c 18000000 		.word	.LC1
 324 0070 3C000000 		.word	.LC2
 325              		.cfi_endproc
 326              	.LFE153:
 328              		.section	.text.HAL_TIM_PeriodElapsedCallback,"ax",%progbits
 329              		.align	1
 330              		.global	HAL_TIM_PeriodElapsedCallback
 331              		.syntax unified
 332              		.thumb
 333              		.thumb_func
 335              	HAL_TIM_PeriodElapsedCallback:
 336              	.LVL20:
 337              	.LFB157:
 318:Core/Src/main.c **** 
 319:Core/Src/main.c **** /**
 320:Core/Src/main.c ****   * @brief  Period elapsed callback in non blocking mode
 321:Core/Src/main.c ****   * @note   This function is called  when TIM1 interrupt took place, inside
 322:Core/Src/main.c ****   * HAL_TIM_IRQHandler(). It makes a direct call to HAL_IncTick() to increment
 323:Core/Src/main.c ****   * a global variable "uwTick" used as application time base.
 324:Core/Src/main.c ****   * @param  htim : TIM handle
 325:Core/Src/main.c ****   * @retval None
 326:Core/Src/main.c ****   */
 327:Core/Src/main.c **** void HAL_TIM_PeriodElapsedCallback(TIM_HandleTypeDef *htim)
 328:Core/Src/main.c **** {
 338              		.loc 1 328 1 is_stmt 1 view -0
 339              		.cfi_startproc
 340              		@ args = 0, pretend = 0, frame = 0
 341              		@ frame_needed = 0, uses_anonymous_args = 0
 342              		.loc 1 328 1 is_stmt 0 view .LVU70
 343 0000 08B5     		push	{r3, lr}
 344              	.LCFI13:
 345              		.cfi_def_cfa_offset 8
 346              		.cfi_offset 3, -8
 347              		.cfi_offset 14, -4
 329:Core/Src/main.c ****   /* USER CODE BEGIN Callback 0 */
 330:Core/Src/main.c **** 
 331:Core/Src/main.c ****   /* USER CODE END Callback 0 */
 332:Core/Src/main.c ****   if (htim->Instance == TIM1) {
 348              		.loc 1 332 3 is_stmt 1 view .LVU71
 349              		.loc 1 332 11 is_stmt 0 view .LVU72
 350 0002 0268     		ldr	r2, [r0]
 351              		.loc 1 332 6 view .LVU73
 352 0004 034B     		ldr	r3, .L25
 353 0006 9A42     		cmp	r2, r3
 354 0008 00D0     		beq	.L24
 355              	.LVL21:
 356              	.L21:
 333:Core/Src/main.c ****     HAL_IncTick();
 334:Core/Src/main.c ****   }
 335:Core/Src/main.c ****   /* USER CODE BEGIN Callback 1 */
 336:Core/Src/main.c **** 
 337:Core/Src/main.c ****   /* USER CODE END Callback 1 */
 338:Core/Src/main.c **** }
 357              		.loc 1 338 1 view .LVU74
 358 000a 08BD     		pop	{r3, pc}
 359              	.LVL22:
 360              	.L24:
ARM GAS  C:\Users\25750\AppData\Local\Temp\ccY4CW3Z.s 			page 14


 333:Core/Src/main.c ****     HAL_IncTick();
 361              		.loc 1 333 5 is_stmt 1 view .LVU75
 362 000c FFF7FEFF 		bl	HAL_IncTick
 363              	.LVL23:
 364              		.loc 1 338 1 is_stmt 0 view .LVU76
 365 0010 FBE7     		b	.L21
 366              	.L26:
 367 0012 00BF     		.align	2
 368              	.L25:
 369 0014 00000140 		.word	1073807360
 370              		.cfi_endproc
 371              	.LFE157:
 373              		.section	.text.Error_Handler,"ax",%progbits
 374              		.align	1
 375              		.global	Error_Handler
 376              		.syntax unified
 377              		.thumb
 378              		.thumb_func
 380              	Error_Handler:
 381              	.LFB158:
 339:Core/Src/main.c **** 
 340:Core/Src/main.c **** /**
 341:Core/Src/main.c ****   * @brief  This function is executed in case of error occurrence.
 342:Core/Src/main.c ****   * @retval None
 343:Core/Src/main.c ****   */
 344:Core/Src/main.c **** void Error_Handler(void)
 345:Core/Src/main.c **** {
 382              		.loc 1 345 1 is_stmt 1 view -0
 383              		.cfi_startproc
 384              		@ Volatile: function does not return.
 385              		@ args = 0, pretend = 0, frame = 0
 386              		@ frame_needed = 0, uses_anonymous_args = 0
 387              		@ link register save eliminated.
 346:Core/Src/main.c ****   /* USER CODE BEGIN Error_Handler_Debug */
 347:Core/Src/main.c ****   /* User can add his own implementation to report the HAL error return state */
 348:Core/Src/main.c ****   __disable_irq();
 388              		.loc 1 348 3 view .LVU78
 389              	.LBB6:
 390              	.LBI6:
 391              		.file 2 "Drivers/CMSIS/Include/cmsis_gcc.h"
   1:Drivers/CMSIS/Include/cmsis_gcc.h **** /**************************************************************************//**
   2:Drivers/CMSIS/Include/cmsis_gcc.h ****  * @file     cmsis_gcc.h
   3:Drivers/CMSIS/Include/cmsis_gcc.h ****  * @brief    CMSIS compiler GCC header file
   4:Drivers/CMSIS/Include/cmsis_gcc.h ****  * @version  V5.2.0
   5:Drivers/CMSIS/Include/cmsis_gcc.h ****  * @date     08. May 2019
   6:Drivers/CMSIS/Include/cmsis_gcc.h ****  ******************************************************************************/
   7:Drivers/CMSIS/Include/cmsis_gcc.h **** /*
   8:Drivers/CMSIS/Include/cmsis_gcc.h ****  * Copyright (c) 2009-2019 Arm Limited. All rights reserved.
   9:Drivers/CMSIS/Include/cmsis_gcc.h ****  *
  10:Drivers/CMSIS/Include/cmsis_gcc.h ****  * SPDX-License-Identifier: Apache-2.0
  11:Drivers/CMSIS/Include/cmsis_gcc.h ****  *
  12:Drivers/CMSIS/Include/cmsis_gcc.h ****  * Licensed under the Apache License, Version 2.0 (the License); you may
  13:Drivers/CMSIS/Include/cmsis_gcc.h ****  * not use this file except in compliance with the License.
  14:Drivers/CMSIS/Include/cmsis_gcc.h ****  * You may obtain a copy of the License at
  15:Drivers/CMSIS/Include/cmsis_gcc.h ****  *
  16:Drivers/CMSIS/Include/cmsis_gcc.h ****  * www.apache.org/licenses/LICENSE-2.0
  17:Drivers/CMSIS/Include/cmsis_gcc.h ****  *
ARM GAS  C:\Users\25750\AppData\Local\Temp\ccY4CW3Z.s 			page 15


  18:Drivers/CMSIS/Include/cmsis_gcc.h ****  * Unless required by applicable law or agreed to in writing, software
  19:Drivers/CMSIS/Include/cmsis_gcc.h ****  * distributed under the License is distributed on an AS IS BASIS, WITHOUT
  20:Drivers/CMSIS/Include/cmsis_gcc.h ****  * WARRANTIES OR CONDITIONS OF ANY KIND, either express or implied.
  21:Drivers/CMSIS/Include/cmsis_gcc.h ****  * See the License for the specific language governing permissions and
  22:Drivers/CMSIS/Include/cmsis_gcc.h ****  * limitations under the License.
  23:Drivers/CMSIS/Include/cmsis_gcc.h ****  */
  24:Drivers/CMSIS/Include/cmsis_gcc.h **** 
  25:Drivers/CMSIS/Include/cmsis_gcc.h **** #ifndef __CMSIS_GCC_H
  26:Drivers/CMSIS/Include/cmsis_gcc.h **** #define __CMSIS_GCC_H
  27:Drivers/CMSIS/Include/cmsis_gcc.h **** 
  28:Drivers/CMSIS/Include/cmsis_gcc.h **** /* ignore some GCC warnings */
  29:Drivers/CMSIS/Include/cmsis_gcc.h **** #pragma GCC diagnostic push
  30:Drivers/CMSIS/Include/cmsis_gcc.h **** #pragma GCC diagnostic ignored "-Wsign-conversion"
  31:Drivers/CMSIS/Include/cmsis_gcc.h **** #pragma GCC diagnostic ignored "-Wconversion"
  32:Drivers/CMSIS/Include/cmsis_gcc.h **** #pragma GCC diagnostic ignored "-Wunused-parameter"
  33:Drivers/CMSIS/Include/cmsis_gcc.h **** 
  34:Drivers/CMSIS/Include/cmsis_gcc.h **** /* Fallback for __has_builtin */
  35:Drivers/CMSIS/Include/cmsis_gcc.h **** #ifndef __has_builtin
  36:Drivers/CMSIS/Include/cmsis_gcc.h ****   #define __has_builtin(x) (0)
  37:Drivers/CMSIS/Include/cmsis_gcc.h **** #endif
  38:Drivers/CMSIS/Include/cmsis_gcc.h **** 
  39:Drivers/CMSIS/Include/cmsis_gcc.h **** /* CMSIS compiler specific defines */
  40:Drivers/CMSIS/Include/cmsis_gcc.h **** #ifndef   __ASM
  41:Drivers/CMSIS/Include/cmsis_gcc.h ****   #define __ASM                                  __asm
  42:Drivers/CMSIS/Include/cmsis_gcc.h **** #endif
  43:Drivers/CMSIS/Include/cmsis_gcc.h **** #ifndef   __INLINE
  44:Drivers/CMSIS/Include/cmsis_gcc.h ****   #define __INLINE                               inline
  45:Drivers/CMSIS/Include/cmsis_gcc.h **** #endif
  46:Drivers/CMSIS/Include/cmsis_gcc.h **** #ifndef   __STATIC_INLINE
  47:Drivers/CMSIS/Include/cmsis_gcc.h ****   #define __STATIC_INLINE                        static inline
  48:Drivers/CMSIS/Include/cmsis_gcc.h **** #endif
  49:Drivers/CMSIS/Include/cmsis_gcc.h **** #ifndef   __STATIC_FORCEINLINE                 
  50:Drivers/CMSIS/Include/cmsis_gcc.h ****   #define __STATIC_FORCEINLINE                   __attribute__((always_inline)) static inline
  51:Drivers/CMSIS/Include/cmsis_gcc.h **** #endif                                           
  52:Drivers/CMSIS/Include/cmsis_gcc.h **** #ifndef   __NO_RETURN
  53:Drivers/CMSIS/Include/cmsis_gcc.h ****   #define __NO_RETURN                            __attribute__((__noreturn__))
  54:Drivers/CMSIS/Include/cmsis_gcc.h **** #endif
  55:Drivers/CMSIS/Include/cmsis_gcc.h **** #ifndef   __USED
  56:Drivers/CMSIS/Include/cmsis_gcc.h ****   #define __USED                                 __attribute__((used))
  57:Drivers/CMSIS/Include/cmsis_gcc.h **** #endif
  58:Drivers/CMSIS/Include/cmsis_gcc.h **** #ifndef   __WEAK
  59:Drivers/CMSIS/Include/cmsis_gcc.h ****   #define __WEAK                                 __attribute__((weak))
  60:Drivers/CMSIS/Include/cmsis_gcc.h **** #endif
  61:Drivers/CMSIS/Include/cmsis_gcc.h **** #ifndef   __PACKED
  62:Drivers/CMSIS/Include/cmsis_gcc.h ****   #define __PACKED                               __attribute__((packed, aligned(1)))
  63:Drivers/CMSIS/Include/cmsis_gcc.h **** #endif
  64:Drivers/CMSIS/Include/cmsis_gcc.h **** #ifndef   __PACKED_STRUCT
  65:Drivers/CMSIS/Include/cmsis_gcc.h ****   #define __PACKED_STRUCT                        struct __attribute__((packed, aligned(1)))
  66:Drivers/CMSIS/Include/cmsis_gcc.h **** #endif
  67:Drivers/CMSIS/Include/cmsis_gcc.h **** #ifndef   __PACKED_UNION
  68:Drivers/CMSIS/Include/cmsis_gcc.h ****   #define __PACKED_UNION                         union __attribute__((packed, aligned(1)))
  69:Drivers/CMSIS/Include/cmsis_gcc.h **** #endif
  70:Drivers/CMSIS/Include/cmsis_gcc.h **** #ifndef   __UNALIGNED_UINT32        /* deprecated */
  71:Drivers/CMSIS/Include/cmsis_gcc.h ****   #pragma GCC diagnostic push
  72:Drivers/CMSIS/Include/cmsis_gcc.h ****   #pragma GCC diagnostic ignored "-Wpacked"
  73:Drivers/CMSIS/Include/cmsis_gcc.h ****   #pragma GCC diagnostic ignored "-Wattributes"
  74:Drivers/CMSIS/Include/cmsis_gcc.h ****   struct __attribute__((packed)) T_UINT32 { uint32_t v; };
ARM GAS  C:\Users\25750\AppData\Local\Temp\ccY4CW3Z.s 			page 16


  75:Drivers/CMSIS/Include/cmsis_gcc.h ****   #pragma GCC diagnostic pop
  76:Drivers/CMSIS/Include/cmsis_gcc.h ****   #define __UNALIGNED_UINT32(x)                  (((struct T_UINT32 *)(x))->v)
  77:Drivers/CMSIS/Include/cmsis_gcc.h **** #endif
  78:Drivers/CMSIS/Include/cmsis_gcc.h **** #ifndef   __UNALIGNED_UINT16_WRITE
  79:Drivers/CMSIS/Include/cmsis_gcc.h ****   #pragma GCC diagnostic push
  80:Drivers/CMSIS/Include/cmsis_gcc.h ****   #pragma GCC diagnostic ignored "-Wpacked"
  81:Drivers/CMSIS/Include/cmsis_gcc.h ****   #pragma GCC diagnostic ignored "-Wattributes"
  82:Drivers/CMSIS/Include/cmsis_gcc.h ****   __PACKED_STRUCT T_UINT16_WRITE { uint16_t v; };
  83:Drivers/CMSIS/Include/cmsis_gcc.h ****   #pragma GCC diagnostic pop
  84:Drivers/CMSIS/Include/cmsis_gcc.h ****   #define __UNALIGNED_UINT16_WRITE(addr, val)    (void)((((struct T_UINT16_WRITE *)(void *)(addr))-
  85:Drivers/CMSIS/Include/cmsis_gcc.h **** #endif
  86:Drivers/CMSIS/Include/cmsis_gcc.h **** #ifndef   __UNALIGNED_UINT16_READ
  87:Drivers/CMSIS/Include/cmsis_gcc.h ****   #pragma GCC diagnostic push
  88:Drivers/CMSIS/Include/cmsis_gcc.h ****   #pragma GCC diagnostic ignored "-Wpacked"
  89:Drivers/CMSIS/Include/cmsis_gcc.h ****   #pragma GCC diagnostic ignored "-Wattributes"
  90:Drivers/CMSIS/Include/cmsis_gcc.h ****   __PACKED_STRUCT T_UINT16_READ { uint16_t v; };
  91:Drivers/CMSIS/Include/cmsis_gcc.h ****   #pragma GCC diagnostic pop
  92:Drivers/CMSIS/Include/cmsis_gcc.h ****   #define __UNALIGNED_UINT16_READ(addr)          (((const struct T_UINT16_READ *)(const void *)(add
  93:Drivers/CMSIS/Include/cmsis_gcc.h **** #endif
  94:Drivers/CMSIS/Include/cmsis_gcc.h **** #ifndef   __UNALIGNED_UINT32_WRITE
  95:Drivers/CMSIS/Include/cmsis_gcc.h ****   #pragma GCC diagnostic push
  96:Drivers/CMSIS/Include/cmsis_gcc.h ****   #pragma GCC diagnostic ignored "-Wpacked"
  97:Drivers/CMSIS/Include/cmsis_gcc.h ****   #pragma GCC diagnostic ignored "-Wattributes"
  98:Drivers/CMSIS/Include/cmsis_gcc.h ****   __PACKED_STRUCT T_UINT32_WRITE { uint32_t v; };
  99:Drivers/CMSIS/Include/cmsis_gcc.h ****   #pragma GCC diagnostic pop
 100:Drivers/CMSIS/Include/cmsis_gcc.h ****   #define __UNALIGNED_UINT32_WRITE(addr, val)    (void)((((struct T_UINT32_WRITE *)(void *)(addr))-
 101:Drivers/CMSIS/Include/cmsis_gcc.h **** #endif
 102:Drivers/CMSIS/Include/cmsis_gcc.h **** #ifndef   __UNALIGNED_UINT32_READ
 103:Drivers/CMSIS/Include/cmsis_gcc.h ****   #pragma GCC diagnostic push
 104:Drivers/CMSIS/Include/cmsis_gcc.h ****   #pragma GCC diagnostic ignored "-Wpacked"
 105:Drivers/CMSIS/Include/cmsis_gcc.h ****   #pragma GCC diagnostic ignored "-Wattributes"
 106:Drivers/CMSIS/Include/cmsis_gcc.h ****   __PACKED_STRUCT T_UINT32_READ { uint32_t v; };
 107:Drivers/CMSIS/Include/cmsis_gcc.h ****   #pragma GCC diagnostic pop
 108:Drivers/CMSIS/Include/cmsis_gcc.h ****   #define __UNALIGNED_UINT32_READ(addr)          (((const struct T_UINT32_READ *)(const void *)(add
 109:Drivers/CMSIS/Include/cmsis_gcc.h **** #endif
 110:Drivers/CMSIS/Include/cmsis_gcc.h **** #ifndef   __ALIGNED
 111:Drivers/CMSIS/Include/cmsis_gcc.h ****   #define __ALIGNED(x)                           __attribute__((aligned(x)))
 112:Drivers/CMSIS/Include/cmsis_gcc.h **** #endif
 113:Drivers/CMSIS/Include/cmsis_gcc.h **** #ifndef   __RESTRICT
 114:Drivers/CMSIS/Include/cmsis_gcc.h ****   #define __RESTRICT                             __restrict
 115:Drivers/CMSIS/Include/cmsis_gcc.h **** #endif
 116:Drivers/CMSIS/Include/cmsis_gcc.h **** #ifndef   __COMPILER_BARRIER
 117:Drivers/CMSIS/Include/cmsis_gcc.h ****   #define __COMPILER_BARRIER()                   __ASM volatile("":::"memory")
 118:Drivers/CMSIS/Include/cmsis_gcc.h **** #endif
 119:Drivers/CMSIS/Include/cmsis_gcc.h **** 
 120:Drivers/CMSIS/Include/cmsis_gcc.h **** /* #########################  Startup and Lowlevel Init  ######################## */
 121:Drivers/CMSIS/Include/cmsis_gcc.h **** 
 122:Drivers/CMSIS/Include/cmsis_gcc.h **** #ifndef __PROGRAM_START
 123:Drivers/CMSIS/Include/cmsis_gcc.h **** 
 124:Drivers/CMSIS/Include/cmsis_gcc.h **** /**
 125:Drivers/CMSIS/Include/cmsis_gcc.h ****   \brief   Initializes data and bss sections
 126:Drivers/CMSIS/Include/cmsis_gcc.h ****   \details This default implementations initialized all data and additional bss
 127:Drivers/CMSIS/Include/cmsis_gcc.h ****            sections relying on .copy.table and .zero.table specified properly
 128:Drivers/CMSIS/Include/cmsis_gcc.h ****            in the used linker script.
 129:Drivers/CMSIS/Include/cmsis_gcc.h ****   
 130:Drivers/CMSIS/Include/cmsis_gcc.h ****  */
 131:Drivers/CMSIS/Include/cmsis_gcc.h **** __STATIC_FORCEINLINE __NO_RETURN void __cmsis_start(void)
ARM GAS  C:\Users\25750\AppData\Local\Temp\ccY4CW3Z.s 			page 17


 132:Drivers/CMSIS/Include/cmsis_gcc.h **** {
 133:Drivers/CMSIS/Include/cmsis_gcc.h ****   extern void _start(void) __NO_RETURN;
 134:Drivers/CMSIS/Include/cmsis_gcc.h ****   
 135:Drivers/CMSIS/Include/cmsis_gcc.h ****   typedef struct {
 136:Drivers/CMSIS/Include/cmsis_gcc.h ****     uint32_t const* src;
 137:Drivers/CMSIS/Include/cmsis_gcc.h ****     uint32_t* dest;
 138:Drivers/CMSIS/Include/cmsis_gcc.h ****     uint32_t  wlen;
 139:Drivers/CMSIS/Include/cmsis_gcc.h ****   } __copy_table_t;
 140:Drivers/CMSIS/Include/cmsis_gcc.h ****   
 141:Drivers/CMSIS/Include/cmsis_gcc.h ****   typedef struct {
 142:Drivers/CMSIS/Include/cmsis_gcc.h ****     uint32_t* dest;
 143:Drivers/CMSIS/Include/cmsis_gcc.h ****     uint32_t  wlen;
 144:Drivers/CMSIS/Include/cmsis_gcc.h ****   } __zero_table_t;
 145:Drivers/CMSIS/Include/cmsis_gcc.h ****   
 146:Drivers/CMSIS/Include/cmsis_gcc.h ****   extern const __copy_table_t __copy_table_start__;
 147:Drivers/CMSIS/Include/cmsis_gcc.h ****   extern const __copy_table_t __copy_table_end__;
 148:Drivers/CMSIS/Include/cmsis_gcc.h ****   extern const __zero_table_t __zero_table_start__;
 149:Drivers/CMSIS/Include/cmsis_gcc.h ****   extern const __zero_table_t __zero_table_end__;
 150:Drivers/CMSIS/Include/cmsis_gcc.h **** 
 151:Drivers/CMSIS/Include/cmsis_gcc.h ****   for (__copy_table_t const* pTable = &__copy_table_start__; pTable < &__copy_table_end__; ++pTable
 152:Drivers/CMSIS/Include/cmsis_gcc.h ****     for(uint32_t i=0u; i<pTable->wlen; ++i) {
 153:Drivers/CMSIS/Include/cmsis_gcc.h ****       pTable->dest[i] = pTable->src[i];
 154:Drivers/CMSIS/Include/cmsis_gcc.h ****     }
 155:Drivers/CMSIS/Include/cmsis_gcc.h ****   }
 156:Drivers/CMSIS/Include/cmsis_gcc.h ****  
 157:Drivers/CMSIS/Include/cmsis_gcc.h ****   for (__zero_table_t const* pTable = &__zero_table_start__; pTable < &__zero_table_end__; ++pTable
 158:Drivers/CMSIS/Include/cmsis_gcc.h ****     for(uint32_t i=0u; i<pTable->wlen; ++i) {
 159:Drivers/CMSIS/Include/cmsis_gcc.h ****       pTable->dest[i] = 0u;
 160:Drivers/CMSIS/Include/cmsis_gcc.h ****     }
 161:Drivers/CMSIS/Include/cmsis_gcc.h ****   }
 162:Drivers/CMSIS/Include/cmsis_gcc.h ****  
 163:Drivers/CMSIS/Include/cmsis_gcc.h ****   _start();
 164:Drivers/CMSIS/Include/cmsis_gcc.h **** }
 165:Drivers/CMSIS/Include/cmsis_gcc.h ****   
 166:Drivers/CMSIS/Include/cmsis_gcc.h **** #define __PROGRAM_START           __cmsis_start
 167:Drivers/CMSIS/Include/cmsis_gcc.h **** #endif
 168:Drivers/CMSIS/Include/cmsis_gcc.h **** 
 169:Drivers/CMSIS/Include/cmsis_gcc.h **** #ifndef __INITIAL_SP
 170:Drivers/CMSIS/Include/cmsis_gcc.h **** #define __INITIAL_SP              __StackTop
 171:Drivers/CMSIS/Include/cmsis_gcc.h **** #endif
 172:Drivers/CMSIS/Include/cmsis_gcc.h **** 
 173:Drivers/CMSIS/Include/cmsis_gcc.h **** #ifndef __STACK_LIMIT
 174:Drivers/CMSIS/Include/cmsis_gcc.h **** #define __STACK_LIMIT             __StackLimit
 175:Drivers/CMSIS/Include/cmsis_gcc.h **** #endif
 176:Drivers/CMSIS/Include/cmsis_gcc.h **** 
 177:Drivers/CMSIS/Include/cmsis_gcc.h **** #ifndef __VECTOR_TABLE
 178:Drivers/CMSIS/Include/cmsis_gcc.h **** #define __VECTOR_TABLE            __Vectors
 179:Drivers/CMSIS/Include/cmsis_gcc.h **** #endif
 180:Drivers/CMSIS/Include/cmsis_gcc.h **** 
 181:Drivers/CMSIS/Include/cmsis_gcc.h **** #ifndef __VECTOR_TABLE_ATTRIBUTE
 182:Drivers/CMSIS/Include/cmsis_gcc.h **** #define __VECTOR_TABLE_ATTRIBUTE  __attribute((used, section(".vectors")))
 183:Drivers/CMSIS/Include/cmsis_gcc.h **** #endif
 184:Drivers/CMSIS/Include/cmsis_gcc.h **** 
 185:Drivers/CMSIS/Include/cmsis_gcc.h **** /* ###########################  Core Function Access  ########################### */
 186:Drivers/CMSIS/Include/cmsis_gcc.h **** /** \ingroup  CMSIS_Core_FunctionInterface
 187:Drivers/CMSIS/Include/cmsis_gcc.h ****     \defgroup CMSIS_Core_RegAccFunctions CMSIS Core Register Access Functions
 188:Drivers/CMSIS/Include/cmsis_gcc.h ****   @{
ARM GAS  C:\Users\25750\AppData\Local\Temp\ccY4CW3Z.s 			page 18


 189:Drivers/CMSIS/Include/cmsis_gcc.h ****  */
 190:Drivers/CMSIS/Include/cmsis_gcc.h **** 
 191:Drivers/CMSIS/Include/cmsis_gcc.h **** /**
 192:Drivers/CMSIS/Include/cmsis_gcc.h ****   \brief   Enable IRQ Interrupts
 193:Drivers/CMSIS/Include/cmsis_gcc.h ****   \details Enables IRQ interrupts by clearing the I-bit in the CPSR.
 194:Drivers/CMSIS/Include/cmsis_gcc.h ****            Can only be executed in Privileged modes.
 195:Drivers/CMSIS/Include/cmsis_gcc.h ****  */
 196:Drivers/CMSIS/Include/cmsis_gcc.h **** __STATIC_FORCEINLINE void __enable_irq(void)
 197:Drivers/CMSIS/Include/cmsis_gcc.h **** {
 198:Drivers/CMSIS/Include/cmsis_gcc.h ****   __ASM volatile ("cpsie i" : : : "memory");
 199:Drivers/CMSIS/Include/cmsis_gcc.h **** }
 200:Drivers/CMSIS/Include/cmsis_gcc.h **** 
 201:Drivers/CMSIS/Include/cmsis_gcc.h **** 
 202:Drivers/CMSIS/Include/cmsis_gcc.h **** /**
 203:Drivers/CMSIS/Include/cmsis_gcc.h ****   \brief   Disable IRQ Interrupts
 204:Drivers/CMSIS/Include/cmsis_gcc.h ****   \details Disables IRQ interrupts by setting the I-bit in the CPSR.
 205:Drivers/CMSIS/Include/cmsis_gcc.h ****            Can only be executed in Privileged modes.
 206:Drivers/CMSIS/Include/cmsis_gcc.h ****  */
 207:Drivers/CMSIS/Include/cmsis_gcc.h **** __STATIC_FORCEINLINE void __disable_irq(void)
 392              		.loc 2 207 27 view .LVU79
 393              	.LBB7:
 208:Drivers/CMSIS/Include/cmsis_gcc.h **** {
 209:Drivers/CMSIS/Include/cmsis_gcc.h ****   __ASM volatile ("cpsid i" : : : "memory");
 394              		.loc 2 209 3 view .LVU80
 395              		.syntax unified
 396              	@ 209 "Drivers/CMSIS/Include/cmsis_gcc.h" 1
 397 0000 72B6     		cpsid i
 398              	@ 0 "" 2
 399              		.thumb
 400              		.syntax unified
 401              	.L28:
 402              	.LBE7:
 403              	.LBE6:
 349:Core/Src/main.c ****   while (1)
 404              		.loc 1 349 3 discriminator 1 view .LVU81
 350:Core/Src/main.c ****   {
 351:Core/Src/main.c ****   }
 405              		.loc 1 351 3 discriminator 1 view .LVU82
 349:Core/Src/main.c ****   while (1)
 406              		.loc 1 349 9 discriminator 1 view .LVU83
 407 0002 FEE7     		b	.L28
 408              		.cfi_endproc
 409              	.LFE158:
 411              		.section	.text.SystemClock_Config,"ax",%progbits
 412              		.align	1
 413              		.global	SystemClock_Config
 414              		.syntax unified
 415              		.thumb
 416              		.thumb_func
 418              	SystemClock_Config:
 419              	.LFB155:
 228:Core/Src/main.c ****   RCC_OscInitTypeDef RCC_OscInitStruct = {0};
 420              		.loc 1 228 1 view -0
 421              		.cfi_startproc
 422              		@ args = 0, pretend = 0, frame = 120
 423              		@ frame_needed = 0, uses_anonymous_args = 0
 424 0000 00B5     		push	{lr}
ARM GAS  C:\Users\25750\AppData\Local\Temp\ccY4CW3Z.s 			page 19


 425              	.LCFI14:
 426              		.cfi_def_cfa_offset 4
 427              		.cfi_offset 14, -4
 428 0002 9FB0     		sub	sp, sp, #124
 429              	.LCFI15:
 430              		.cfi_def_cfa_offset 128
 229:Core/Src/main.c ****   RCC_ClkInitTypeDef RCC_ClkInitStruct = {0};
 431              		.loc 1 229 3 view .LVU85
 229:Core/Src/main.c ****   RCC_ClkInitTypeDef RCC_ClkInitStruct = {0};
 432              		.loc 1 229 22 is_stmt 0 view .LVU86
 433 0004 4C22     		movs	r2, #76
 434 0006 0021     		movs	r1, #0
 435 0008 0BA8     		add	r0, sp, #44
 436 000a FFF7FEFF 		bl	memset
 437              	.LVL24:
 230:Core/Src/main.c **** 
 438              		.loc 1 230 3 is_stmt 1 view .LVU87
 230:Core/Src/main.c **** 
 439              		.loc 1 230 22 is_stmt 0 view .LVU88
 440 000e 2022     		movs	r2, #32
 441 0010 0021     		movs	r1, #0
 442 0012 03A8     		add	r0, sp, #12
 443 0014 FFF7FEFF 		bl	memset
 444              	.LVL25:
 234:Core/Src/main.c **** 
 445              		.loc 1 234 3 is_stmt 1 view .LVU89
 446 0018 0220     		movs	r0, #2
 447 001a FFF7FEFF 		bl	HAL_PWREx_ConfigSupply
 448              	.LVL26:
 238:Core/Src/main.c **** 
 449              		.loc 1 238 3 view .LVU90
 450              	.LBB8:
 238:Core/Src/main.c **** 
 451              		.loc 1 238 3 view .LVU91
 452 001e 0023     		movs	r3, #0
 453 0020 0093     		str	r3, [sp]
 238:Core/Src/main.c **** 
 454              		.loc 1 238 3 view .LVU92
 238:Core/Src/main.c **** 
 455              		.loc 1 238 3 view .LVU93
 456 0022 394B     		ldr	r3, .L37
 457 0024 DA6A     		ldr	r2, [r3, #44]
 458 0026 22F00102 		bic	r2, r2, #1
 459 002a DA62     		str	r2, [r3, #44]
 238:Core/Src/main.c **** 
 460              		.loc 1 238 3 view .LVU94
 461 002c DB6A     		ldr	r3, [r3, #44]
 462 002e 03F00103 		and	r3, r3, #1
 463 0032 0093     		str	r3, [sp]
 238:Core/Src/main.c **** 
 464              		.loc 1 238 3 view .LVU95
 465 0034 354B     		ldr	r3, .L37+4
 466 0036 9A69     		ldr	r2, [r3, #24]
 467 0038 42F44042 		orr	r2, r2, #49152
 468 003c 9A61     		str	r2, [r3, #24]
 238:Core/Src/main.c **** 
 469              		.loc 1 238 3 view .LVU96
ARM GAS  C:\Users\25750\AppData\Local\Temp\ccY4CW3Z.s 			page 20


 470 003e 9B69     		ldr	r3, [r3, #24]
 471 0040 03F44043 		and	r3, r3, #49152
 472 0044 0093     		str	r3, [sp]
 238:Core/Src/main.c **** 
 473              		.loc 1 238 3 view .LVU97
 474 0046 009B     		ldr	r3, [sp]
 475              	.LBE8:
 238:Core/Src/main.c **** 
 476              		.loc 1 238 3 view .LVU98
 240:Core/Src/main.c **** 
 477              		.loc 1 240 3 view .LVU99
 478              	.L30:
 240:Core/Src/main.c **** 
 479              		.loc 1 240 48 discriminator 1 view .LVU100
 240:Core/Src/main.c **** 
 480              		.loc 1 240 8 discriminator 1 view .LVU101
 240:Core/Src/main.c **** 
 481              		.loc 1 240 10 is_stmt 0 discriminator 1 view .LVU102
 482 0048 304B     		ldr	r3, .L37+4
 483 004a 9B69     		ldr	r3, [r3, #24]
 240:Core/Src/main.c **** 
 484              		.loc 1 240 8 discriminator 1 view .LVU103
 485 004c 13F4005F 		tst	r3, #8192
 486 0050 FAD0     		beq	.L30
 242:Core/Src/main.c ****   __HAL_PWR_VOLTAGESCALING_CONFIG(PWR_REGULATOR_VOLTAGE_SCALE0);
 487              		.loc 1 242 3 is_stmt 1 view .LVU104
 488              	.LBB9:
 242:Core/Src/main.c ****   __HAL_PWR_VOLTAGESCALING_CONFIG(PWR_REGULATOR_VOLTAGE_SCALE0);
 489              		.loc 1 242 3 view .LVU105
 242:Core/Src/main.c ****   __HAL_PWR_VOLTAGESCALING_CONFIG(PWR_REGULATOR_VOLTAGE_SCALE0);
 490              		.loc 1 242 3 view .LVU106
 491 0052 2F4B     		ldr	r3, .L37+8
 492 0054 D3F8F420 		ldr	r2, [r3, #244]
 493 0058 42F00202 		orr	r2, r2, #2
 494 005c C3F8F420 		str	r2, [r3, #244]
 242:Core/Src/main.c ****   __HAL_PWR_VOLTAGESCALING_CONFIG(PWR_REGULATOR_VOLTAGE_SCALE0);
 495              		.loc 1 242 3 view .LVU107
 496 0060 D3F8F430 		ldr	r3, [r3, #244]
 497 0064 03F00203 		and	r3, r3, #2
 498 0068 0193     		str	r3, [sp, #4]
 242:Core/Src/main.c ****   __HAL_PWR_VOLTAGESCALING_CONFIG(PWR_REGULATOR_VOLTAGE_SCALE0);
 499              		.loc 1 242 3 view .LVU108
 500 006a 019B     		ldr	r3, [sp, #4]
 501              	.LBE9:
 242:Core/Src/main.c ****   __HAL_PWR_VOLTAGESCALING_CONFIG(PWR_REGULATOR_VOLTAGE_SCALE0);
 502              		.loc 1 242 3 view .LVU109
 243:Core/Src/main.c **** 
 503              		.loc 1 243 3 view .LVU110
 504              	.LBB10:
 243:Core/Src/main.c **** 
 505              		.loc 1 243 3 view .LVU111
 506 006c 0023     		movs	r3, #0
 507 006e 0293     		str	r3, [sp, #8]
 243:Core/Src/main.c **** 
 508              		.loc 1 243 3 view .LVU112
 243:Core/Src/main.c **** 
 509              		.loc 1 243 3 view .LVU113
ARM GAS  C:\Users\25750\AppData\Local\Temp\ccY4CW3Z.s 			page 21


 510 0070 264B     		ldr	r3, .L37+4
 511 0072 9A69     		ldr	r2, [r3, #24]
 512 0074 42F44042 		orr	r2, r2, #49152
 513 0078 9A61     		str	r2, [r3, #24]
 243:Core/Src/main.c **** 
 514              		.loc 1 243 3 view .LVU114
 515 007a 9B69     		ldr	r3, [r3, #24]
 516 007c 03F44043 		and	r3, r3, #49152
 517 0080 0293     		str	r3, [sp, #8]
 243:Core/Src/main.c **** 
 518              		.loc 1 243 3 view .LVU115
 519 0082 214B     		ldr	r3, .L37
 520 0084 DA6A     		ldr	r2, [r3, #44]
 521 0086 42F00102 		orr	r2, r2, #1
 522 008a DA62     		str	r2, [r3, #44]
 243:Core/Src/main.c **** 
 523              		.loc 1 243 3 view .LVU116
 524 008c DB6A     		ldr	r3, [r3, #44]
 525 008e 03F00103 		and	r3, r3, #1
 526 0092 0293     		str	r3, [sp, #8]
 243:Core/Src/main.c **** 
 527              		.loc 1 243 3 view .LVU117
 528 0094 029B     		ldr	r3, [sp, #8]
 529              	.LBE10:
 243:Core/Src/main.c **** 
 530              		.loc 1 243 3 view .LVU118
 245:Core/Src/main.c **** 
 531              		.loc 1 245 3 view .LVU119
 532              	.L31:
 245:Core/Src/main.c **** 
 533              		.loc 1 245 48 discriminator 1 view .LVU120
 245:Core/Src/main.c **** 
 534              		.loc 1 245 8 discriminator 1 view .LVU121
 245:Core/Src/main.c **** 
 535              		.loc 1 245 10 is_stmt 0 discriminator 1 view .LVU122
 536 0096 1D4B     		ldr	r3, .L37+4
 537 0098 9B69     		ldr	r3, [r3, #24]
 245:Core/Src/main.c **** 
 538              		.loc 1 245 8 discriminator 1 view .LVU123
 539 009a 13F4005F 		tst	r3, #8192
 540 009e FAD0     		beq	.L31
 250:Core/Src/main.c ****   RCC_OscInitStruct.HSEState = RCC_HSE_ON;
 541              		.loc 1 250 3 is_stmt 1 view .LVU124
 250:Core/Src/main.c ****   RCC_OscInitStruct.HSEState = RCC_HSE_ON;
 542              		.loc 1 250 36 is_stmt 0 view .LVU125
 543 00a0 0123     		movs	r3, #1
 544 00a2 0B93     		str	r3, [sp, #44]
 251:Core/Src/main.c ****   RCC_OscInitStruct.PLL.PLLState = RCC_PLL_ON;
 545              		.loc 1 251 3 is_stmt 1 view .LVU126
 251:Core/Src/main.c ****   RCC_OscInitStruct.PLL.PLLState = RCC_PLL_ON;
 546              		.loc 1 251 30 is_stmt 0 view .LVU127
 547 00a4 4FF48033 		mov	r3, #65536
 548 00a8 0C93     		str	r3, [sp, #48]
 252:Core/Src/main.c ****   RCC_OscInitStruct.PLL.PLLSource = RCC_PLLSOURCE_HSE;
 549              		.loc 1 252 3 is_stmt 1 view .LVU128
 252:Core/Src/main.c ****   RCC_OscInitStruct.PLL.PLLSource = RCC_PLLSOURCE_HSE;
 550              		.loc 1 252 34 is_stmt 0 view .LVU129
ARM GAS  C:\Users\25750\AppData\Local\Temp\ccY4CW3Z.s 			page 22


 551 00aa 0223     		movs	r3, #2
 552 00ac 1493     		str	r3, [sp, #80]
 253:Core/Src/main.c ****   RCC_OscInitStruct.PLL.PLLM = 5;
 553              		.loc 1 253 3 is_stmt 1 view .LVU130
 253:Core/Src/main.c ****   RCC_OscInitStruct.PLL.PLLM = 5;
 554              		.loc 1 253 35 is_stmt 0 view .LVU131
 555 00ae 1593     		str	r3, [sp, #84]
 254:Core/Src/main.c ****   RCC_OscInitStruct.PLL.PLLN = 192;
 556              		.loc 1 254 3 is_stmt 1 view .LVU132
 254:Core/Src/main.c ****   RCC_OscInitStruct.PLL.PLLN = 192;
 557              		.loc 1 254 30 is_stmt 0 view .LVU133
 558 00b0 0522     		movs	r2, #5
 559 00b2 1692     		str	r2, [sp, #88]
 255:Core/Src/main.c ****   RCC_OscInitStruct.PLL.PLLP = 2;
 560              		.loc 1 255 3 is_stmt 1 view .LVU134
 255:Core/Src/main.c ****   RCC_OscInitStruct.PLL.PLLP = 2;
 561              		.loc 1 255 30 is_stmt 0 view .LVU135
 562 00b4 C022     		movs	r2, #192
 563 00b6 1792     		str	r2, [sp, #92]
 256:Core/Src/main.c ****   RCC_OscInitStruct.PLL.PLLQ = 2;
 564              		.loc 1 256 3 is_stmt 1 view .LVU136
 256:Core/Src/main.c ****   RCC_OscInitStruct.PLL.PLLQ = 2;
 565              		.loc 1 256 30 is_stmt 0 view .LVU137
 566 00b8 1893     		str	r3, [sp, #96]
 257:Core/Src/main.c ****   RCC_OscInitStruct.PLL.PLLR = 2;
 567              		.loc 1 257 3 is_stmt 1 view .LVU138
 257:Core/Src/main.c ****   RCC_OscInitStruct.PLL.PLLR = 2;
 568              		.loc 1 257 30 is_stmt 0 view .LVU139
 569 00ba 1993     		str	r3, [sp, #100]
 258:Core/Src/main.c ****   RCC_OscInitStruct.PLL.PLLRGE = RCC_PLL1VCIRANGE_2;
 570              		.loc 1 258 3 is_stmt 1 view .LVU140
 258:Core/Src/main.c ****   RCC_OscInitStruct.PLL.PLLRGE = RCC_PLL1VCIRANGE_2;
 571              		.loc 1 258 30 is_stmt 0 view .LVU141
 572 00bc 1A93     		str	r3, [sp, #104]
 259:Core/Src/main.c ****   RCC_OscInitStruct.PLL.PLLVCOSEL = RCC_PLL1VCOWIDE;
 573              		.loc 1 259 3 is_stmt 1 view .LVU142
 259:Core/Src/main.c ****   RCC_OscInitStruct.PLL.PLLVCOSEL = RCC_PLL1VCOWIDE;
 574              		.loc 1 259 32 is_stmt 0 view .LVU143
 575 00be 0823     		movs	r3, #8
 576 00c0 1B93     		str	r3, [sp, #108]
 260:Core/Src/main.c ****   RCC_OscInitStruct.PLL.PLLFRACN = 0;
 577              		.loc 1 260 3 is_stmt 1 view .LVU144
 260:Core/Src/main.c ****   RCC_OscInitStruct.PLL.PLLFRACN = 0;
 578              		.loc 1 260 35 is_stmt 0 view .LVU145
 579 00c2 0023     		movs	r3, #0
 580 00c4 1C93     		str	r3, [sp, #112]
 261:Core/Src/main.c ****   if (HAL_RCC_OscConfig(&RCC_OscInitStruct) != HAL_OK)
 581              		.loc 1 261 3 is_stmt 1 view .LVU146
 261:Core/Src/main.c ****   if (HAL_RCC_OscConfig(&RCC_OscInitStruct) != HAL_OK)
 582              		.loc 1 261 34 is_stmt 0 view .LVU147
 583 00c6 1D93     		str	r3, [sp, #116]
 262:Core/Src/main.c ****   {
 584              		.loc 1 262 3 is_stmt 1 view .LVU148
 262:Core/Src/main.c ****   {
 585              		.loc 1 262 7 is_stmt 0 view .LVU149
 586 00c8 0BA8     		add	r0, sp, #44
 587 00ca FFF7FEFF 		bl	HAL_RCC_OscConfig
ARM GAS  C:\Users\25750\AppData\Local\Temp\ccY4CW3Z.s 			page 23


 588              	.LVL27:
 262:Core/Src/main.c ****   {
 589              		.loc 1 262 6 view .LVU150
 590 00ce B0B9     		cbnz	r0, .L35
 269:Core/Src/main.c ****                               |RCC_CLOCKTYPE_PCLK1|RCC_CLOCKTYPE_PCLK2
 591              		.loc 1 269 3 is_stmt 1 view .LVU151
 269:Core/Src/main.c ****                               |RCC_CLOCKTYPE_PCLK1|RCC_CLOCKTYPE_PCLK2
 592              		.loc 1 269 31 is_stmt 0 view .LVU152
 593 00d0 3F23     		movs	r3, #63
 594 00d2 0393     		str	r3, [sp, #12]
 272:Core/Src/main.c ****   RCC_ClkInitStruct.SYSCLKDivider = RCC_SYSCLK_DIV1;
 595              		.loc 1 272 3 is_stmt 1 view .LVU153
 272:Core/Src/main.c ****   RCC_ClkInitStruct.SYSCLKDivider = RCC_SYSCLK_DIV1;
 596              		.loc 1 272 34 is_stmt 0 view .LVU154
 597 00d4 0323     		movs	r3, #3
 598 00d6 0493     		str	r3, [sp, #16]
 273:Core/Src/main.c ****   RCC_ClkInitStruct.AHBCLKDivider = RCC_HCLK_DIV2;
 599              		.loc 1 273 3 is_stmt 1 view .LVU155
 273:Core/Src/main.c ****   RCC_ClkInitStruct.AHBCLKDivider = RCC_HCLK_DIV2;
 600              		.loc 1 273 35 is_stmt 0 view .LVU156
 601 00d8 0023     		movs	r3, #0
 602 00da 0593     		str	r3, [sp, #20]
 274:Core/Src/main.c ****   RCC_ClkInitStruct.APB3CLKDivider = RCC_APB3_DIV2;
 603              		.loc 1 274 3 is_stmt 1 view .LVU157
 274:Core/Src/main.c ****   RCC_ClkInitStruct.APB3CLKDivider = RCC_APB3_DIV2;
 604              		.loc 1 274 35 is_stmt 0 view .LVU158
 605 00dc 0823     		movs	r3, #8
 606 00de 0693     		str	r3, [sp, #24]
 275:Core/Src/main.c ****   RCC_ClkInitStruct.APB1CLKDivider = RCC_APB1_DIV2;
 607              		.loc 1 275 3 is_stmt 1 view .LVU159
 275:Core/Src/main.c ****   RCC_ClkInitStruct.APB1CLKDivider = RCC_APB1_DIV2;
 608              		.loc 1 275 36 is_stmt 0 view .LVU160
 609 00e0 4023     		movs	r3, #64
 610 00e2 0793     		str	r3, [sp, #28]
 276:Core/Src/main.c ****   RCC_ClkInitStruct.APB2CLKDivider = RCC_APB2_DIV2;
 611              		.loc 1 276 3 is_stmt 1 view .LVU161
 276:Core/Src/main.c ****   RCC_ClkInitStruct.APB2CLKDivider = RCC_APB2_DIV2;
 612              		.loc 1 276 36 is_stmt 0 view .LVU162
 613 00e4 0893     		str	r3, [sp, #32]
 277:Core/Src/main.c ****   RCC_ClkInitStruct.APB4CLKDivider = RCC_APB4_DIV2;
 614              		.loc 1 277 3 is_stmt 1 view .LVU163
 277:Core/Src/main.c ****   RCC_ClkInitStruct.APB4CLKDivider = RCC_APB4_DIV2;
 615              		.loc 1 277 36 is_stmt 0 view .LVU164
 616 00e6 4FF48062 		mov	r2, #1024
 617 00ea 0992     		str	r2, [sp, #36]
 278:Core/Src/main.c **** 
 618              		.loc 1 278 3 is_stmt 1 view .LVU165
 278:Core/Src/main.c **** 
 619              		.loc 1 278 36 is_stmt 0 view .LVU166
 620 00ec 0A93     		str	r3, [sp, #40]
 280:Core/Src/main.c ****   {
 621              		.loc 1 280 3 is_stmt 1 view .LVU167
 280:Core/Src/main.c ****   {
 622              		.loc 1 280 7 is_stmt 0 view .LVU168
 623 00ee 0421     		movs	r1, #4
 624 00f0 03A8     		add	r0, sp, #12
 625 00f2 FFF7FEFF 		bl	HAL_RCC_ClockConfig
ARM GAS  C:\Users\25750\AppData\Local\Temp\ccY4CW3Z.s 			page 24


 626              	.LVL28:
 280:Core/Src/main.c ****   {
 627              		.loc 1 280 6 view .LVU169
 628 00f6 20B9     		cbnz	r0, .L36
 284:Core/Src/main.c **** 
 629              		.loc 1 284 1 view .LVU170
 630 00f8 1FB0     		add	sp, sp, #124
 631              	.LCFI16:
 632              		.cfi_remember_state
 633              		.cfi_def_cfa_offset 4
 634              		@ sp needed
 635 00fa 5DF804FB 		ldr	pc, [sp], #4
 636              	.L35:
 637              	.LCFI17:
 638              		.cfi_restore_state
 264:Core/Src/main.c ****   }
 639              		.loc 1 264 5 is_stmt 1 view .LVU171
 640 00fe FFF7FEFF 		bl	Error_Handler
 641              	.LVL29:
 642              	.L36:
 282:Core/Src/main.c ****   }
 643              		.loc 1 282 5 view .LVU172
 644 0102 FFF7FEFF 		bl	Error_Handler
 645              	.LVL30:
 646              	.L38:
 647 0106 00BF     		.align	2
 648              	.L37:
 649 0108 00040058 		.word	1476396032
 650 010c 00480258 		.word	1476544512
 651 0110 00440258 		.word	1476543488
 652              		.cfi_endproc
 653              	.LFE155:
 655              		.section	.rodata.main.str1.4,"aMS",%progbits,1
 656              		.align	2
 657              	.LC3:
 658 0000 4D616744 		.ascii	"MagData: X=%d, Y=%d, Z=%d\012\000"
 658      6174613A 
 658      20583D25 
 658      642C2059 
 658      3D25642C 
 659              		.section	.text.main,"ax",%progbits
 660              		.align	1
 661              		.global	main
 662              		.syntax unified
 663              		.thumb
 664              		.thumb_func
 666              	main:
 667              	.LFB154:
 116:Core/Src/main.c **** 
 668              		.loc 1 116 1 view -0
 669              		.cfi_startproc
 670              		@ args = 0, pretend = 0, frame = 32
 671              		@ frame_needed = 0, uses_anonymous_args = 0
 672 0000 30B5     		push	{r4, r5, lr}
 673              	.LCFI18:
 674              		.cfi_def_cfa_offset 12
 675              		.cfi_offset 4, -12
ARM GAS  C:\Users\25750\AppData\Local\Temp\ccY4CW3Z.s 			page 25


 676              		.cfi_offset 5, -8
 677              		.cfi_offset 14, -4
 678 0002 8BB0     		sub	sp, sp, #44
 679              	.LCFI19:
 680              		.cfi_def_cfa_offset 56
 123:Core/Src/main.c **** 
 681              		.loc 1 123 3 view .LVU174
 682 0004 FFF7FEFF 		bl	MPU_Config
 683              	.LVL31:
 128:Core/Src/main.c **** 
 684              		.loc 1 128 3 view .LVU175
 685 0008 FFF7FEFF 		bl	HAL_Init
 686              	.LVL32:
 135:Core/Src/main.c **** 
 687              		.loc 1 135 3 view .LVU176
 688 000c FFF7FEFF 		bl	SystemClock_Config
 689              	.LVL33:
 142:Core/Src/main.c ****   MX_DMA_Init();
 690              		.loc 1 142 3 view .LVU177
 691 0010 FFF7FEFF 		bl	MX_GPIO_Init
 692              	.LVL34:
 143:Core/Src/main.c ****   MX_TIM5_Init();
 693              		.loc 1 143 3 view .LVU178
 694 0014 FFF7FEFF 		bl	MX_DMA_Init
 695              	.LVL35:
 144:Core/Src/main.c ****   MX_TIM8_Init();
 696              		.loc 1 144 3 view .LVU179
 697 0018 FFF7FEFF 		bl	MX_TIM5_Init
 698              	.LVL36:
 145:Core/Src/main.c ****   MX_TIM12_Init();
 699              		.loc 1 145 3 view .LVU180
 700 001c FFF7FEFF 		bl	MX_TIM8_Init
 701              	.LVL37:
 146:Core/Src/main.c ****   MX_TIM13_Init();
 702              		.loc 1 146 3 view .LVU181
 703 0020 FFF7FEFF 		bl	MX_TIM12_Init
 704              	.LVL38:
 147:Core/Src/main.c ****   MX_TIM14_Init();
 705              		.loc 1 147 3 view .LVU182
 706 0024 FFF7FEFF 		bl	MX_TIM13_Init
 707              	.LVL39:
 148:Core/Src/main.c ****   MX_TIM15_Init();
 708              		.loc 1 148 3 view .LVU183
 709 0028 FFF7FEFF 		bl	MX_TIM14_Init
 710              	.LVL40:
 149:Core/Src/main.c ****   MX_TIM16_Init();
 711              		.loc 1 149 3 view .LVU184
 712 002c FFF7FEFF 		bl	MX_TIM15_Init
 713              	.LVL41:
 150:Core/Src/main.c ****   MX_TIM17_Init();
 714              		.loc 1 150 3 view .LVU185
 715 0030 FFF7FEFF 		bl	MX_TIM16_Init
 716              	.LVL42:
 151:Core/Src/main.c ****   MX_I2C1_Init();
 717              		.loc 1 151 3 view .LVU186
 718 0034 FFF7FEFF 		bl	MX_TIM17_Init
 719              	.LVL43:
ARM GAS  C:\Users\25750\AppData\Local\Temp\ccY4CW3Z.s 			page 26


 152:Core/Src/main.c ****   MX_USART1_UART_Init();
 720              		.loc 1 152 3 view .LVU187
 721 0038 FFF7FEFF 		bl	MX_I2C1_Init
 722              	.LVL44:
 153:Core/Src/main.c ****   MX_TIM3_Init();
 723              		.loc 1 153 3 view .LVU188
 724 003c FFF7FEFF 		bl	MX_USART1_UART_Init
 725              	.LVL45:
 154:Core/Src/main.c ****   MX_TIM4_Init();
 726              		.loc 1 154 3 view .LVU189
 727 0040 FFF7FEFF 		bl	MX_TIM3_Init
 728              	.LVL46:
 155:Core/Src/main.c ****   /* USER CODE BEGIN 2 */
 729              		.loc 1 155 3 view .LVU190
 730 0044 FFF7FEFF 		bl	MX_TIM4_Init
 731              	.LVL47:
 162:Core/Src/main.c ****       
 732              		.loc 1 162 2 view .LVU191
 733 0048 FFF7FEFF 		bl	Servo_Init
 734              	.LVL48:
 166:Core/Src/main.c ****     // è®¾ç½®ä¼ æ„Ÿå™¨çš„é…ç½®å‚æ•°
 735              		.loc 1 166 5 view .LVU192
 736 004c FFF7FEFF 		bl	MPU9250_Init
 737              	.LVL49:
 168:Core/Src/main.c ****     MPU9250_SetGyroRange(GYRO_RANGE_500DPS);  // è®¾ç½®é™?èžºä»ªé‡ç¨‹ä¸? 500DPS
 738              		.loc 1 168 5 view .LVU193
 739 0050 0120     		movs	r0, #1
 740 0052 FFF7FEFF 		bl	MPU9250_SetAccelRange
 741              	.LVL50:
 169:Core/Src/main.c ****     MPU9250_SetDLPFBandwidth(DLPF_BANDWIDTH_92HZ); // è®¾ç½®ä½Žé?šæ»¤æ³¢å¸¦å®½ä¸º 92Hz
 742              		.loc 1 169 5 view .LVU194
 743 0056 0120     		movs	r0, #1
 744 0058 FFF7FEFF 		bl	MPU9250_SetGyroRange
 745              	.LVL51:
 170:Core/Src/main.c ****     MPU9250_SetSampleRateDivider(LP_ACCEL_ODR_125HZ); // è®¾ç½®é‡‡æ ·çŽ‡ä¸º 125Hz
 746              		.loc 1 170 5 view .LVU195
 747 005c 0120     		movs	r0, #1
 748 005e FFF7FEFF 		bl	MPU9250_SetDLPFBandwidth
 749              	.LVL52:
 171:Core/Src/main.c **** 
 750              		.loc 1 171 5 view .LVU196
 751 0062 0920     		movs	r0, #9
 752 0064 FFF7FEFF 		bl	MPU9250_SetSampleRateDivider
 753              	.LVL53:
 175:Core/Src/main.c ****   int16_t MagData0[3] = {0};
 754              		.loc 1 175 3 view .LVU197
 175:Core/Src/main.c ****   int16_t MagData0[3] = {0};
 755              		.loc 1 175 11 is_stmt 0 view .LVU198
 756 0068 0023     		movs	r3, #0
 757 006a 0893     		str	r3, [sp, #32]
 758 006c ADF82430 		strh	r3, [sp, #36]	@ movhi
 176:Core/Src/main.c ****   int16_t GyroData0[3] = {0};
 759              		.loc 1 176 3 is_stmt 1 view .LVU199
 176:Core/Src/main.c ****   int16_t GyroData0[3] = {0};
 760              		.loc 1 176 11 is_stmt 0 view .LVU200
 761 0070 0693     		str	r3, [sp, #24]
 762 0072 ADF81C30 		strh	r3, [sp, #28]	@ movhi
ARM GAS  C:\Users\25750\AppData\Local\Temp\ccY4CW3Z.s 			page 27


 177:Core/Src/main.c ****   float TempData0 = 0.0;
 763              		.loc 1 177 3 is_stmt 1 view .LVU201
 177:Core/Src/main.c ****   float TempData0 = 0.0;
 764              		.loc 1 177 11 is_stmt 0 view .LVU202
 765 0076 0493     		str	r3, [sp, #16]
 766 0078 ADF81430 		strh	r3, [sp, #20]	@ movhi
 178:Core/Src/main.c **** 
 767              		.loc 1 178 3 is_stmt 1 view .LVU203
 178:Core/Src/main.c **** 
 768              		.loc 1 178 9 is_stmt 0 view .LVU204
 769 007c 0023     		movs	r3, #0
 770 007e 0393     		str	r3, [sp, #12]	@ float
 180:Core/Src/main.c ****   int len = snprintf(buffer, sizeof(buffer), "MagData: X=%d, Y=%d, Z=%d\n", MagData0[0], MagData0[1
 771              		.loc 1 180 3 is_stmt 1 view .LVU205
 772 0080 03AB     		add	r3, sp, #12
 773 0082 04AA     		add	r2, sp, #16
 774 0084 06A9     		add	r1, sp, #24
 775 0086 08A8     		add	r0, sp, #32
 776 0088 FFF7FEFF 		bl	MPU9250_GetData
 777              	.LVL54:
 181:Core/Src/main.c ****  
 778              		.loc 1 181 3 view .LVU206
 181:Core/Src/main.c ****  
 779              		.loc 1 181 98 is_stmt 0 view .LVU207
 780 008c BDF91A30 		ldrsh	r3, [sp, #26]
 181:Core/Src/main.c ****  
 781              		.loc 1 181 111 view .LVU208
 782 0090 BDF91C20 		ldrsh	r2, [sp, #28]
 181:Core/Src/main.c ****  
 783              		.loc 1 181 13 view .LVU209
 784 0094 1D4D     		ldr	r5, .L42
 785 0096 1E4C     		ldr	r4, .L42+4
 786 0098 0192     		str	r2, [sp, #4]
 787 009a 0093     		str	r3, [sp]
 788 009c BDF91830 		ldrsh	r3, [sp, #24]
 789 00a0 2A46     		mov	r2, r5
 790 00a2 8021     		movs	r1, #128
 791 00a4 2046     		mov	r0, r4
 792 00a6 FFF7FEFF 		bl	snprintf
 793              	.LVL55:
 187:Core/Src/main.c ****   //HAL_UART_Transmit(&huart1, (uint8_t*)buffer, len, HAL_MAX_DELAY);
 794              		.loc 1 187 3 is_stmt 1 view .LVU210
 187:Core/Src/main.c ****   //HAL_UART_Transmit(&huart1, (uint8_t*)buffer, len, HAL_MAX_DELAY);
 795              		.loc 1 187 94 is_stmt 0 view .LVU211
 796 00aa BDF91A30 		ldrsh	r3, [sp, #26]
 187:Core/Src/main.c ****   //HAL_UART_Transmit(&huart1, (uint8_t*)buffer, len, HAL_MAX_DELAY);
 797              		.loc 1 187 107 view .LVU212
 798 00ae BDF91C20 		ldrsh	r2, [sp, #28]
 187:Core/Src/main.c ****   //HAL_UART_Transmit(&huart1, (uint8_t*)buffer, len, HAL_MAX_DELAY);
 799              		.loc 1 187 9 view .LVU213
 800 00b2 0192     		str	r2, [sp, #4]
 801 00b4 0093     		str	r3, [sp]
 802 00b6 BDF91830 		ldrsh	r3, [sp, #24]
 803 00ba 2A46     		mov	r2, r5
 804 00bc 8021     		movs	r1, #128
 805 00be 2046     		mov	r0, r4
 806 00c0 FFF7FEFF 		bl	snprintf
ARM GAS  C:\Users\25750\AppData\Local\Temp\ccY4CW3Z.s 			page 28


 807              	.LVL56:
 193:Core/Src/main.c **** 
 808              		.loc 1 193 3 is_stmt 1 view .LVU214
 809 00c4 FFF7FEFF 		bl	osKernelInitialize
 810              	.LVL57:
 196:Core/Src/main.c **** 
 811              		.loc 1 196 3 view .LVU215
 812 00c8 FFF7FEFF 		bl	MX_FREERTOS_Init
 813              	.LVL58:
 199:Core/Src/main.c **** 
 814              		.loc 1 199 3 view .LVU216
 815 00cc FFF7FEFF 		bl	osKernelStart
 816              	.LVL59:
 817              	.L40:
 205:Core/Src/main.c ****   {
 818              		.loc 1 205 3 discriminator 1 view .LVU217
 819              	.LBB11:
 208:Core/Src/main.c **** 
 820              		.loc 1 208 5 discriminator 1 view .LVU218
 208:Core/Src/main.c **** 
 821              		.loc 1 208 100 is_stmt 0 discriminator 1 view .LVU219
 822 00d0 BDF91A30 		ldrsh	r3, [sp, #26]
 208:Core/Src/main.c **** 
 823              		.loc 1 208 113 discriminator 1 view .LVU220
 824 00d4 BDF91C20 		ldrsh	r2, [sp, #28]
 208:Core/Src/main.c **** 
 825              		.loc 1 208 15 discriminator 1 view .LVU221
 826 00d8 0C4D     		ldr	r5, .L42
 827 00da 0D4C     		ldr	r4, .L42+4
 828 00dc 0192     		str	r2, [sp, #4]
 829 00de 0093     		str	r3, [sp]
 830 00e0 BDF91830 		ldrsh	r3, [sp, #24]
 831 00e4 2A46     		mov	r2, r5
 832 00e6 8021     		movs	r1, #128
 833 00e8 2046     		mov	r0, r4
 834 00ea FFF7FEFF 		bl	snprintf
 835              	.LVL60:
 214:Core/Src/main.c ****   //HAL_UART_Transmit(&huart1, (uint8_t*)buffer, len, HAL_MAX_DELAY);
 836              		.loc 1 214 3 is_stmt 1 discriminator 1 view .LVU222
 214:Core/Src/main.c ****   //HAL_UART_Transmit(&huart1, (uint8_t*)buffer, len, HAL_MAX_DELAY);
 837              		.loc 1 214 94 is_stmt 0 discriminator 1 view .LVU223
 838 00ee BDF91A30 		ldrsh	r3, [sp, #26]
 214:Core/Src/main.c ****   //HAL_UART_Transmit(&huart1, (uint8_t*)buffer, len, HAL_MAX_DELAY);
 839              		.loc 1 214 107 discriminator 1 view .LVU224
 840 00f2 BDF91C20 		ldrsh	r2, [sp, #28]
 214:Core/Src/main.c ****   //HAL_UART_Transmit(&huart1, (uint8_t*)buffer, len, HAL_MAX_DELAY);
 841              		.loc 1 214 9 discriminator 1 view .LVU225
 842 00f6 0192     		str	r2, [sp, #4]
 843 00f8 0093     		str	r3, [sp]
 844 00fa BDF91830 		ldrsh	r3, [sp, #24]
 845 00fe 2A46     		mov	r2, r5
 846 0100 8021     		movs	r1, #128
 847 0102 2046     		mov	r0, r4
 848 0104 FFF7FEFF 		bl	snprintf
 849              	.LVL61:
 850              	.LBE11:
 205:Core/Src/main.c ****   {
ARM GAS  C:\Users\25750\AppData\Local\Temp\ccY4CW3Z.s 			page 29


 851              		.loc 1 205 9 is_stmt 1 discriminator 1 view .LVU226
 852 0108 E2E7     		b	.L40
 853              	.L43:
 854 010a 00BF     		.align	2
 855              	.L42:
 856 010c 00000000 		.word	.LC3
 857 0110 00000000 		.word	.LANCHOR0
 858              		.cfi_endproc
 859              	.LFE154:
 861              		.global	buffer
 862              		.section	.bss.buffer,"aw",%nobits
 863              		.align	2
 864              		.set	.LANCHOR0,. + 0
 867              	buffer:
 868 0000 00000000 		.space	128
 868      00000000 
 868      00000000 
 868      00000000 
 868      00000000 
 869              		.text
 870              	.Letext0:
 871              		.file 3 "e:\\clion\\gcc-arm-none-eabi\\arm-none-eabi\\include\\machine\\_default_types.h"
 872              		.file 4 "e:\\clion\\gcc-arm-none-eabi\\arm-none-eabi\\include\\sys\\_stdint.h"
 873              		.file 5 "Drivers/CMSIS/Device/ST/STM32H7xx/Include/stm32h743xx.h"
 874              		.file 6 "e:\\clion\\gcc-arm-none-eabi\\lib\\gcc\\arm-none-eabi\\10.3.1\\include\\stddef.h"
 875              		.file 7 "e:\\clion\\gcc-arm-none-eabi\\arm-none-eabi\\include\\sys\\_types.h"
 876              		.file 8 "e:\\clion\\gcc-arm-none-eabi\\arm-none-eabi\\include\\sys\\reent.h"
 877              		.file 9 "e:\\clion\\gcc-arm-none-eabi\\arm-none-eabi\\include\\sys\\lock.h"
 878              		.file 10 "Drivers/STM32H7xx_HAL_Driver/Inc/stm32h7xx_hal_def.h"
 879              		.file 11 "Drivers/STM32H7xx_HAL_Driver/Inc/stm32h7xx_hal_rcc.h"
 880              		.file 12 "Drivers/STM32H7xx_HAL_Driver/Inc/stm32h7xx_hal_dma.h"
 881              		.file 13 "Drivers/STM32H7xx_HAL_Driver/Inc/stm32h7xx_hal_cortex.h"
 882              		.file 14 "Drivers/STM32H7xx_HAL_Driver/Inc/stm32h7xx_hal_i2c.h"
 883              		.file 15 "Drivers/STM32H7xx_HAL_Driver/Inc/stm32h7xx_hal_tim.h"
 884              		.file 16 "Drivers/STM32H7xx_HAL_Driver/Inc/stm32h7xx_hal_uart.h"
 885              		.file 17 "Core/Inc/i2c.h"
 886              		.file 18 "Core/Inc/usart.h"
 887              		.file 19 "Core/Inc/MPU9250.h"
 888              		.file 20 "e:\\clion\\gcc-arm-none-eabi\\arm-none-eabi\\include\\stdio.h"
 889              		.file 21 "Drivers/STM32H7xx_HAL_Driver/Inc/stm32h7xx_hal.h"
 890              		.file 22 "Drivers/STM32H7xx_HAL_Driver/Inc/stm32h7xx_hal_pwr_ex.h"
 891              		.file 23 "Core/Inc/gpio.h"
 892              		.file 24 "Core/Inc/dma.h"
 893              		.file 25 "Core/Inc/tim.h"
 894              		.file 26 "Core/Inc/servo_control.h"
 895              		.file 27 "Middlewares/Third_Party/FreeRTOS/Source/CMSIS_RTOS_V2/cmsis_os2.h"
 896              		.file 28 "<built-in>"
ARM GAS  C:\Users\25750\AppData\Local\Temp\ccY4CW3Z.s 			page 30


DEFINED SYMBOLS
                            *ABS*:00000000 main.c
C:\Users\25750\AppData\Local\Temp\ccY4CW3Z.s:19     .text.MPU_Config:00000000 $t
C:\Users\25750\AppData\Local\Temp\ccY4CW3Z.s:24     .text.MPU_Config:00000000 MPU_Config
C:\Users\25750\AppData\Local\Temp\ccY4CW3Z.s:103    .text.fputc:00000000 $t
C:\Users\25750\AppData\Local\Temp\ccY4CW3Z.s:109    .text.fputc:00000000 fputc
C:\Users\25750\AppData\Local\Temp\ccY4CW3Z.s:147    .text.fputc:0000001c $d
C:\Users\25750\AppData\Local\Temp\ccY4CW3Z.s:152    .text.fgetc:00000000 $t
C:\Users\25750\AppData\Local\Temp\ccY4CW3Z.s:158    .text.fgetc:00000000 fgetc
C:\Users\25750\AppData\Local\Temp\ccY4CW3Z.s:205    .text.fgetc:00000020 $d
C:\Users\25750\AppData\Local\Temp\ccY4CW3Z.s:210    .rodata.scan_I2C_bus.str1.4:00000000 $d
C:\Users\25750\AppData\Local\Temp\ccY4CW3Z.s:220    .text.scan_I2C_bus:00000000 $t
C:\Users\25750\AppData\Local\Temp\ccY4CW3Z.s:226    .text.scan_I2C_bus:00000000 scan_I2C_bus
C:\Users\25750\AppData\Local\Temp\ccY4CW3Z.s:320    .text.scan_I2C_bus:00000060 $d
C:\Users\25750\AppData\Local\Temp\ccY4CW3Z.s:329    .text.HAL_TIM_PeriodElapsedCallback:00000000 $t
C:\Users\25750\AppData\Local\Temp\ccY4CW3Z.s:335    .text.HAL_TIM_PeriodElapsedCallback:00000000 HAL_TIM_PeriodElapsedCallback
C:\Users\25750\AppData\Local\Temp\ccY4CW3Z.s:369    .text.HAL_TIM_PeriodElapsedCallback:00000014 $d
C:\Users\25750\AppData\Local\Temp\ccY4CW3Z.s:374    .text.Error_Handler:00000000 $t
C:\Users\25750\AppData\Local\Temp\ccY4CW3Z.s:380    .text.Error_Handler:00000000 Error_Handler
C:\Users\25750\AppData\Local\Temp\ccY4CW3Z.s:412    .text.SystemClock_Config:00000000 $t
C:\Users\25750\AppData\Local\Temp\ccY4CW3Z.s:418    .text.SystemClock_Config:00000000 SystemClock_Config
C:\Users\25750\AppData\Local\Temp\ccY4CW3Z.s:649    .text.SystemClock_Config:00000108 $d
C:\Users\25750\AppData\Local\Temp\ccY4CW3Z.s:656    .rodata.main.str1.4:00000000 $d
C:\Users\25750\AppData\Local\Temp\ccY4CW3Z.s:660    .text.main:00000000 $t
C:\Users\25750\AppData\Local\Temp\ccY4CW3Z.s:666    .text.main:00000000 main
C:\Users\25750\AppData\Local\Temp\ccY4CW3Z.s:856    .text.main:0000010c $d
C:\Users\25750\AppData\Local\Temp\ccY4CW3Z.s:867    .bss.buffer:00000000 buffer
C:\Users\25750\AppData\Local\Temp\ccY4CW3Z.s:863    .bss.buffer:00000000 $d

UNDEFINED SYMBOLS
HAL_MPU_Disable
HAL_MPU_ConfigRegion
HAL_MPU_Enable
HAL_UART_Transmit
huart1
HAL_UART_Receive_IT
HAL_I2C_IsDeviceReady
snprintf
hi2c1
HAL_IncTick
memset
HAL_PWREx_ConfigSupply
HAL_RCC_OscConfig
HAL_RCC_ClockConfig
HAL_Init
MX_GPIO_Init
MX_DMA_Init
MX_TIM5_Init
MX_TIM8_Init
MX_TIM12_Init
MX_TIM13_Init
MX_TIM14_Init
MX_TIM15_Init
MX_TIM16_Init
MX_TIM17_Init
MX_I2C1_Init
MX_USART1_UART_Init
ARM GAS  C:\Users\25750\AppData\Local\Temp\ccY4CW3Z.s 			page 31


MX_TIM3_Init
MX_TIM4_Init
Servo_Init
MPU9250_Init
MPU9250_SetAccelRange
MPU9250_SetGyroRange
MPU9250_SetDLPFBandwidth
MPU9250_SetSampleRateDivider
MPU9250_GetData
osKernelInitialize
MX_FREERTOS_Init
osKernelStart
