ARM GAS  C:\Users\25750\AppData\Local\Temp\ccxGdRMs.s 			page 1


   1              		.cpu cortex-m7
   2              		.arch armv7e-m
   3              		.fpu fpv5-d16
   4              		.eabi_attribute 28, 1
   5              		.eabi_attribute 20, 1
   6              		.eabi_attribute 21, 1
   7              		.eabi_attribute 23, 3
   8              		.eabi_attribute 24, 1
   9              		.eabi_attribute 25, 1
  10              		.eabi_attribute 26, 1
  11              		.eabi_attribute 30, 1
  12              		.eabi_attribute 34, 1
  13              		.eabi_attribute 18, 4
  14              		.file	"robocontrol.c"
  15              		.text
  16              	.Ltext0:
  17              		.cfi_sections	.debug_frame
  18              		.section	.text.Move_Forward,"ax",%progbits
  19              		.align	1
  20              		.global	Move_Forward
  21              		.syntax unified
  22              		.thumb
  23              		.thumb_func
  25              	Move_Forward:
  26              	.LFB148:
  27              		.file 1 "Core/Src/robocontrol.c"
   1:Core/Src/robocontrol.c **** #include "robocontrol.h"
   2:Core/Src/robocontrol.c **** #include "servo_control.h"
   3:Core/Src/robocontrol.c **** #include "FreeRTOS.h"
   4:Core/Src/robocontrol.c **** #include "task.h"
   5:Core/Src/robocontrol.c **** #include <math.h>
   6:Core/Src/robocontrol.c **** 
   7:Core/Src/robocontrol.c **** #define M_PI 3.14159265358979323846
   8:Core/Src/robocontrol.c **** 
   9:Core/Src/robocontrol.c **** // ÂÖ®Â±ÄÁä∂ÊÄÅÂèòÈáè
  10:Core/Src/robocontrol.c **** volatile RobotAction current_action = ACTION_STOP;
  11:Core/Src/robocontrol.c **** 
  12:Core/Src/robocontrol.c **** // ÊéßÂà∂Êú∫Âô®‰∫∫Âä®‰ΩúÁöÑÂáΩÊï∞
  13:Core/Src/robocontrol.c **** void Move_Forward() { current_action = ACTION_FORWARD; }
  28              		.loc 1 13 21 view -0
  29              		.cfi_startproc
  30              		@ args = 0, pretend = 0, frame = 0
  31              		@ frame_needed = 0, uses_anonymous_args = 0
  32              		@ link register save eliminated.
  33              		.loc 1 13 23 view .LVU1
  34              		.loc 1 13 38 is_stmt 0 view .LVU2
  35 0000 014B     		ldr	r3, .L2
  36 0002 0122     		movs	r2, #1
  37 0004 1A70     		strb	r2, [r3]
  38              		.loc 1 13 56 view .LVU3
  39 0006 7047     		bx	lr
  40              	.L3:
  41              		.align	2
  42              	.L2:
  43 0008 00000000 		.word	.LANCHOR0
  44              		.cfi_endproc
  45              	.LFE148:
ARM GAS  C:\Users\25750\AppData\Local\Temp\ccxGdRMs.s 			page 2


  47              		.section	.text.Move_Backward,"ax",%progbits
  48              		.align	1
  49              		.global	Move_Backward
  50              		.syntax unified
  51              		.thumb
  52              		.thumb_func
  54              	Move_Backward:
  55              	.LFB149:
  14:Core/Src/robocontrol.c **** void Move_Backward() { current_action = ACTION_BACKWARD; }
  56              		.loc 1 14 22 is_stmt 1 view -0
  57              		.cfi_startproc
  58              		@ args = 0, pretend = 0, frame = 0
  59              		@ frame_needed = 0, uses_anonymous_args = 0
  60              		@ link register save eliminated.
  61              		.loc 1 14 24 view .LVU5
  62              		.loc 1 14 39 is_stmt 0 view .LVU6
  63 0000 014B     		ldr	r3, .L5
  64 0002 0222     		movs	r2, #2
  65 0004 1A70     		strb	r2, [r3]
  66              		.loc 1 14 58 view .LVU7
  67 0006 7047     		bx	lr
  68              	.L6:
  69              		.align	2
  70              	.L5:
  71 0008 00000000 		.word	.LANCHOR0
  72              		.cfi_endproc
  73              	.LFE149:
  75              		.section	.text.Turn_Left,"ax",%progbits
  76              		.align	1
  77              		.global	Turn_Left
  78              		.syntax unified
  79              		.thumb
  80              		.thumb_func
  82              	Turn_Left:
  83              	.LFB150:
  15:Core/Src/robocontrol.c **** void Turn_Left() { current_action = ACTION_TURN_LEFT; }
  84              		.loc 1 15 18 is_stmt 1 view -0
  85              		.cfi_startproc
  86              		@ args = 0, pretend = 0, frame = 0
  87              		@ frame_needed = 0, uses_anonymous_args = 0
  88              		@ link register save eliminated.
  89              		.loc 1 15 20 view .LVU9
  90              		.loc 1 15 35 is_stmt 0 view .LVU10
  91 0000 014B     		ldr	r3, .L8
  92 0002 0322     		movs	r2, #3
  93 0004 1A70     		strb	r2, [r3]
  94              		.loc 1 15 55 view .LVU11
  95 0006 7047     		bx	lr
  96              	.L9:
  97              		.align	2
  98              	.L8:
  99 0008 00000000 		.word	.LANCHOR0
 100              		.cfi_endproc
 101              	.LFE150:
 103              		.section	.text.Turn_Right,"ax",%progbits
 104              		.align	1
 105              		.global	Turn_Right
ARM GAS  C:\Users\25750\AppData\Local\Temp\ccxGdRMs.s 			page 3


 106              		.syntax unified
 107              		.thumb
 108              		.thumb_func
 110              	Turn_Right:
 111              	.LFB151:
  16:Core/Src/robocontrol.c **** void Turn_Right() { current_action = ACTION_TURN_RIGHT; }
 112              		.loc 1 16 19 is_stmt 1 view -0
 113              		.cfi_startproc
 114              		@ args = 0, pretend = 0, frame = 0
 115              		@ frame_needed = 0, uses_anonymous_args = 0
 116              		@ link register save eliminated.
 117              		.loc 1 16 21 view .LVU13
 118              		.loc 1 16 36 is_stmt 0 view .LVU14
 119 0000 014B     		ldr	r3, .L11
 120 0002 0422     		movs	r2, #4
 121 0004 1A70     		strb	r2, [r3]
 122              		.loc 1 16 57 view .LVU15
 123 0006 7047     		bx	lr
 124              	.L12:
 125              		.align	2
 126              	.L11:
 127 0008 00000000 		.word	.LANCHOR0
 128              		.cfi_endproc
 129              	.LFE151:
 131              		.section	.text.Stop,"ax",%progbits
 132              		.align	1
 133              		.global	Stop
 134              		.syntax unified
 135              		.thumb
 136              		.thumb_func
 138              	Stop:
 139              	.LFB152:
  17:Core/Src/robocontrol.c **** void Stop() { current_action = ACTION_STOP; }
 140              		.loc 1 17 13 is_stmt 1 view -0
 141              		.cfi_startproc
 142              		@ args = 0, pretend = 0, frame = 0
 143              		@ frame_needed = 0, uses_anonymous_args = 0
 144              		@ link register save eliminated.
 145              		.loc 1 17 15 view .LVU17
 146              		.loc 1 17 30 is_stmt 0 view .LVU18
 147 0000 014B     		ldr	r3, .L14
 148 0002 0022     		movs	r2, #0
 149 0004 1A70     		strb	r2, [r3]
 150              		.loc 1 17 45 view .LVU19
 151 0006 7047     		bx	lr
 152              	.L15:
 153              		.align	2
 154              	.L14:
 155 0008 00000000 		.word	.LANCHOR0
 156              		.cfi_endproc
 157              	.LFE152:
 159              		.section	.text.CalculateGait,"ax",%progbits
 160              		.align	1
 161              		.global	CalculateGait
 162              		.syntax unified
 163              		.thumb
 164              		.thumb_func
ARM GAS  C:\Users\25750\AppData\Local\Temp\ccxGdRMs.s 			page 4


 166              	CalculateGait:
 167              	.LVL0:
 168              	.LFB153:
  18:Core/Src/robocontrol.c **** 
  19:Core/Src/robocontrol.c **** /*** ËÆ°ÁÆóÊ≠•ÊÄÅÔºöÊ†πÊçÆÊó∂Èó¥ËÆ°ÁÆóÊØè‰∏ÄÊ≠•ÁöÑË∂≥Â∞ñ‰ΩçÁΩÆ ***/
  20:Core/Src/robocontrol.c **** void CalculateGait(float time, float* x, float* y) {
 169              		.loc 1 20 52 is_stmt 1 view -0
 170              		.cfi_startproc
 171              		@ args = 0, pretend = 0, frame = 0
 172              		@ frame_needed = 0, uses_anonymous_args = 0
 173              		.loc 1 20 52 is_stmt 0 view .LVU21
 174 0000 10B5     		push	{r4, lr}
 175              	.LCFI0:
 176              		.cfi_def_cfa_offset 8
 177              		.cfi_offset 4, -8
 178              		.cfi_offset 14, -4
 179 0002 0C46     		mov	r4, r1
  21:Core/Src/robocontrol.c ****     float stepLength = 20.0;  // Ê≠•ÈïøÔºåÂçï‰ΩçÔºöÊØ´Á±≥
 180              		.loc 1 21 5 is_stmt 1 view .LVU22
 181              	.LVL1:
  22:Core/Src/robocontrol.c ****     float stepHeight = 15.0;  // Êä¨ËÑöÈ´òÂ∫¶ÔºåÂçï‰ΩçÔºöÊØ´Á±≥
 182              		.loc 1 22 5 view .LVU23
  23:Core/Src/robocontrol.c **** 
  24:Core/Src/robocontrol.c ****     if (time < 0.5) {
 183              		.loc 1 24 5 view .LVU24
 184              		.loc 1 24 8 is_stmt 0 view .LVU25
 185 0004 F6EE007A 		vmov.f32	s15, #5.0e-1
 186 0008 B4EEE70A 		vcmpe.f32	s0, s15
 187 000c F1EE10FA 		vmrs	APSR_nzcv, FPSCR
 188 0010 18D5     		bpl	.L21
  25:Core/Src/robocontrol.c ****         // Â§ßËÖøÂêëÂâçÊëÜÂä®Êó∂ÔºåÂ∞èËÖøÈÄêÊ∏ê‰º∏Â±ï
  26:Core/Src/robocontrol.c ****         *x = stepLength * (2 * time);  // ÂêëÂâçÁßªÂä®
 189              		.loc 1 26 9 is_stmt 1 view .LVU26
 190              		.loc 1 26 30 is_stmt 0 view .LVU27
 191 0012 70EE007A 		vadd.f32	s15, s0, s0
 192              		.loc 1 26 25 view .LVU28
 193 0016 B3EE047A 		vmov.f32	s14, #2.0e+1
 194 001a 67EE877A 		vmul.f32	s15, s15, s14
 195              		.loc 1 26 12 view .LVU29
 196 001e C0ED007A 		vstr.32	s15, [r0]
  27:Core/Src/robocontrol.c ****         *y = stepHeight * sinf(M_PI * time);  // Êä¨ËÑö
 197              		.loc 1 27 9 is_stmt 1 view .LVU30
 198              		.loc 1 27 37 is_stmt 0 view .LVU31
 199 0022 B7EEC00A 		vcvt.f64.f32	d0, s0
 200              	.LVL2:
 201              		.loc 1 27 37 view .LVU32
 202 0026 9FED187B 		vldr.64	d7, .L23
 203 002a 20EE070B 		vmul.f64	d0, d0, d7
 204              		.loc 1 27 27 view .LVU33
 205 002e B7EEC00B 		vcvt.f32.f64	s0, d0
 206 0032 FFF7FEFF 		bl	sinf
 207              	.LVL3:
 208              		.loc 1 27 25 view .LVU34
 209 0036 F2EE0E7A 		vmov.f32	s15, #1.5e+1
 210 003a 20EE270A 		vmul.f32	s0, s0, s15
 211              		.loc 1 27 12 view .LVU35
 212 003e 84ED000A 		vstr.32	s0, [r4]
ARM GAS  C:\Users\25750\AppData\Local\Temp\ccxGdRMs.s 			page 5


 213              	.L16:
  28:Core/Src/robocontrol.c ****     } else {
  29:Core/Src/robocontrol.c ****         // Â§ßËÖøÂêëÂêéÊëÜÂä®Êó∂ÔºåÂ∞èËÖøÂ∫îÊî∂Âõû
  30:Core/Src/robocontrol.c ****         *x = stepLength * (2 * (1.0 - time));  // ÂêëÂêéÊªëÂä®
  31:Core/Src/robocontrol.c ****         *y = stepHeight * sinf(M_PI * time);  // Â∞èËÖøÂ∫îÊä¨Ëµ∑Èò≤Ê≠¢Á¢∞Âà∞Âú∞Èù¢
  32:Core/Src/robocontrol.c ****     }
  33:Core/Src/robocontrol.c **** }
 214              		.loc 1 33 1 view .LVU36
 215 0042 10BD     		pop	{r4, pc}
 216              	.LVL4:
 217              	.L21:
  30:Core/Src/robocontrol.c ****         *y = stepHeight * sinf(M_PI * time);  // Â∞èËÖøÂ∫îÊä¨Ëµ∑Èò≤Ê≠¢Á¢∞Âà∞Âú∞Èù¢
 218              		.loc 1 30 9 is_stmt 1 view .LVU37
  30:Core/Src/robocontrol.c ****         *y = stepHeight * sinf(M_PI * time);  // Â∞èËÖøÂ∫îÊä¨Ëµ∑Èò≤Ê≠¢Á¢∞Âà∞Âú∞Èù¢
 219              		.loc 1 30 37 is_stmt 0 view .LVU38
 220 0044 B7EEC00A 		vcvt.f64.f32	d0, s0
 221              	.LVL5:
  30:Core/Src/robocontrol.c ****         *y = stepHeight * sinf(M_PI * time);  // Â∞èËÖøÂ∫îÊä¨Ëµ∑Èò≤Ê≠¢Á¢∞Âà∞Âú∞Èù¢
 222              		.loc 1 30 37 view .LVU39
 223 0048 B7EE007B 		vmov.f64	d7, #1.0e+0
 224 004c 37EE407B 		vsub.f64	d7, d7, d0
  30:Core/Src/robocontrol.c ****         *y = stepHeight * sinf(M_PI * time);  // Â∞èËÖøÂ∫îÊä¨Ëµ∑Èò≤Ê≠¢Á¢∞Âà∞Âú∞Èù¢
 225              		.loc 1 30 30 view .LVU40
 226 0050 37EE077B 		vadd.f64	d7, d7, d7
  30:Core/Src/robocontrol.c ****         *y = stepHeight * sinf(M_PI * time);  // Â∞èËÖøÂ∫îÊä¨Ëµ∑Èò≤Ê≠¢Á¢∞Âà∞Âú∞Èù¢
 227              		.loc 1 30 25 view .LVU41
 228 0054 B3EE046B 		vmov.f64	d6, #2.0e+1
 229 0058 27EE067B 		vmul.f64	d7, d7, d6
 230 005c B7EEC77B 		vcvt.f32.f64	s14, d7
  30:Core/Src/robocontrol.c ****         *y = stepHeight * sinf(M_PI * time);  // Â∞èËÖøÂ∫îÊä¨Ëµ∑Èò≤Ê≠¢Á¢∞Âà∞Âú∞Èù¢
 231              		.loc 1 30 12 view .LVU42
 232 0060 80ED007A 		vstr.32	s14, [r0]
  31:Core/Src/robocontrol.c ****     }
 233              		.loc 1 31 9 is_stmt 1 view .LVU43
  31:Core/Src/robocontrol.c ****     }
 234              		.loc 1 31 37 is_stmt 0 view .LVU44
 235 0064 9FED087B 		vldr.64	d7, .L23
 236 0068 20EE070B 		vmul.f64	d0, d0, d7
  31:Core/Src/robocontrol.c ****     }
 237              		.loc 1 31 27 view .LVU45
 238 006c B7EEC00B 		vcvt.f32.f64	s0, d0
 239 0070 FFF7FEFF 		bl	sinf
 240              	.LVL6:
  31:Core/Src/robocontrol.c ****     }
 241              		.loc 1 31 25 view .LVU46
 242 0074 F2EE0E7A 		vmov.f32	s15, #1.5e+1
 243 0078 20EE270A 		vmul.f32	s0, s0, s15
  31:Core/Src/robocontrol.c ****     }
 244              		.loc 1 31 12 view .LVU47
 245 007c 84ED000A 		vstr.32	s0, [r4]
 246              		.loc 1 33 1 view .LVU48
 247 0080 DFE7     		b	.L16
 248              	.L24:
 249 0082 00BFAFF3 		.align	3
 249      0080
 250              	.L23:
 251 0088 182D4454 		.word	1413754136
ARM GAS  C:\Users\25750\AppData\Local\Temp\ccxGdRMs.s 			page 6


 252 008c FB210940 		.word	1074340347
 253              		.cfi_endproc
 254              	.LFE153:
 256              		.section	.text.InverseKinematics,"ax",%progbits
 257              		.align	1
 258              		.global	InverseKinematics
 259              		.syntax unified
 260              		.thumb
 261              		.thumb_func
 263              	InverseKinematics:
 264              	.LVL7:
 265              	.LFB154:
  34:Core/Src/robocontrol.c **** 
  35:Core/Src/robocontrol.c **** 
  36:Core/Src/robocontrol.c **** 
  37:Core/Src/robocontrol.c **** /*** ÈÄÜËøêÂä®Â≠¶ÔºöÈÄöËøáÁªôÂÆöÁöÑË∂≥Â∞ñ‰ΩçÁΩÆÔºåËÆ°ÁÆóÂÖ≥ËäÇËßíÂ∫¶ ***/
  38:Core/Src/robocontrol.c **** void InverseKinematics(float x, float y, float* theta1, float* theta2) {
 266              		.loc 1 38 72 is_stmt 1 view -0
 267              		.cfi_startproc
 268              		@ args = 0, pretend = 0, frame = 0
 269              		@ frame_needed = 0, uses_anonymous_args = 0
 270              		.loc 1 38 72 is_stmt 0 view .LVU50
 271 0000 38B5     		push	{r3, r4, r5, lr}
 272              	.LCFI1:
 273              		.cfi_def_cfa_offset 16
 274              		.cfi_offset 3, -16
 275              		.cfi_offset 4, -12
 276              		.cfi_offset 5, -8
 277              		.cfi_offset 14, -4
 278 0002 2DED048B 		vpush.64	{d8, d9}
 279              	.LCFI2:
 280              		.cfi_def_cfa_offset 32
 281              		.cfi_offset 80, -32
 282              		.cfi_offset 81, -28
 283              		.cfi_offset 82, -24
 284              		.cfi_offset 83, -20
 285 0006 B0EE409A 		vmov.f32	s18, s0
 286 000a B0EE608A 		vmov.f32	s16, s1
 287 000e 0546     		mov	r5, r0
 288 0010 0C46     		mov	r4, r1
  39:Core/Src/robocontrol.c ****     float L1 = LEG_UPPER_LENGTH;  // Â§ßËÖøÈïøÂ∫¶
 289              		.loc 1 39 5 is_stmt 1 view .LVU51
 290              	.LVL8:
  40:Core/Src/robocontrol.c ****     float L2 = LEG_LOWER_LENGTH;  // Â∞èËÖøÈïøÂ∫¶
 291              		.loc 1 40 5 view .LVU52
  41:Core/Src/robocontrol.c ****     const float MIN_KNEE_ANGLE = 110.0f;  // Â∞èËÖøÊúÄÂ∞èÊî∂Áº©ËßíÂ∫¶
 292              		.loc 1 41 5 view .LVU53
  42:Core/Src/robocontrol.c ****     const float MAX_KNEE_ANGLE = 70.0f;  // Â∞èËÖøÊúÄÂ§ß‰º∏Â±ïËßíÂ∫¶
 293              		.loc 1 42 5 view .LVU54
  43:Core/Src/robocontrol.c **** 
  44:Core/Src/robocontrol.c ****     // ËÆ°ÁÆóË∂≥Â∞ñÂà∞ËÇ©ÈÉ®ÁöÑË∑ùÁ¶ª
  45:Core/Src/robocontrol.c ****     float dist = sqrtf(x * x + y * y);
 294              		.loc 1 45 5 view .LVU55
 295              		.loc 1 45 26 is_stmt 0 view .LVU56
 296 0012 20EE000A 		vmul.f32	s0, s0, s0
 297              	.LVL9:
 298              		.loc 1 45 34 view .LVU57
ARM GAS  C:\Users\25750\AppData\Local\Temp\ccxGdRMs.s 			page 7


 299 0016 60EEA07A 		vmul.f32	s15, s1, s1
 300              		.loc 1 45 18 view .LVU58
 301 001a 30EE270A 		vadd.f32	s0, s0, s15
 302 001e FFF7FEFF 		bl	sqrtf
 303              	.LVL10:
  46:Core/Src/robocontrol.c **** 
  47:Core/Src/robocontrol.c ****     // ‰øùËØÅÁõÆÊ†á‰ΩçÁΩÆÂú®Êú∫Ê¢∞ËÖøÁöÑÂèØËææËåÉÂõ¥ÂÜÖ
  48:Core/Src/robocontrol.c ****     if (dist > (L1 + L2)) dist = L1 + L2;
 304              		.loc 1 48 5 is_stmt 1 view .LVU59
 305              		.loc 1 48 8 is_stmt 0 view .LVU60
 306 0022 DFED3D7A 		vldr.32	s15, .L31+8
 307 0026 B4EEE70A 		vcmpe.f32	s0, s15
 308 002a F1EE10FA 		vmrs	APSR_nzcv, FPSCR
 309 002e 01DD     		ble	.L26
 310              		.loc 1 48 32 view .LVU61
 311 0030 B0EE670A 		vmov.f32	s0, s15
 312              	.LVL11:
 313              	.L26:
  49:Core/Src/robocontrol.c ****     if (dist < fabsf(L1 - L2)) dist = fabsf(L1 - L2);
 314              		.loc 1 49 5 is_stmt 1 view .LVU62
 315              		.loc 1 49 8 is_stmt 0 view .LVU63
 316 0034 DFED397A 		vldr.32	s15, .L31+12
 317 0038 B4EEE70A 		vcmpe.f32	s0, s15
 318 003c F1EE10FA 		vmrs	APSR_nzcv, FPSCR
 319 0040 01D5     		bpl	.L27
 320              		.loc 1 49 37 view .LVU64
 321 0042 B0EE670A 		vmov.f32	s0, s15
 322              	.LVL12:
 323              	.L27:
  50:Core/Src/robocontrol.c **** 
  51:Core/Src/robocontrol.c ****     // Â∞èËÖøËßíÂ∫¶ËÆ°ÁÆó
  52:Core/Src/robocontrol.c ****     float cos_theta2 = (dist * dist - L1 * L1 - L2 * L2) / (2 * L1 * L2);
 324              		.loc 1 52 5 is_stmt 1 view .LVU65
 325              		.loc 1 52 30 is_stmt 0 view .LVU66
 326 0046 60EE007A 		vmul.f32	s15, s0, s0
 327              		.loc 1 52 37 view .LVU67
 328 004a 9FED350A 		vldr.32	s0, .L31+16
 329              	.LVL13:
 330              		.loc 1 52 37 view .LVU68
 331 004e 77EEC07A 		vsub.f32	s15, s15, s0
 332              		.loc 1 52 47 view .LVU69
 333 0052 9FED340A 		vldr.32	s0, .L31+20
 334 0056 77EEC07A 		vsub.f32	s15, s15, s0
 335              		.loc 1 52 11 view .LVU70
 336 005a 9FED337A 		vldr.32	s14, .L31+24
 337 005e 87EE870A 		vdiv.f32	s0, s15, s14
 338              	.LVL14:
  53:Core/Src/robocontrol.c ****     cos_theta2 = fminf(fmaxf(cos_theta2, -1.0f), 1.0f);  // ÈôêÂà∂Âú®[-1, 1]‰πãÈó¥
 339              		.loc 1 53 5 is_stmt 1 view .LVU71
 340              		.loc 1 53 18 is_stmt 0 view .LVU72
 341 0062 FFEE007A 		vmov.f32	s15, #-1.0e+0
 342 0066 C0FE277A 		vmaxnm.f32	s15, s0, s15
 343              	.LVL15:
  54:Core/Src/robocontrol.c ****     float phi2 = acosf(cos_theta2);  // Â∞èËÖøËßíÂ∫¶ (ÂºßÂ∫¶)
 344              		.loc 1 54 5 is_stmt 1 view .LVU73
 345              		.loc 1 54 18 is_stmt 0 view .LVU74
 346 006a B7EE000A 		vmov.f32	s0, #1.0e+0
ARM GAS  C:\Users\25750\AppData\Local\Temp\ccxGdRMs.s 			page 8


 347 006e 87FEC00A 		vminnm.f32	s0, s15, s0
 348              	.LVL16:
 349              		.loc 1 54 18 view .LVU75
 350 0072 FFF7FEFF 		bl	acosf
 351              	.LVL17:
 352              		.loc 1 54 18 view .LVU76
 353 0076 F0EE408A 		vmov.f32	s17, s0
 354              	.LVL18:
  55:Core/Src/robocontrol.c **** 
  56:Core/Src/robocontrol.c ****     // Â§ßËÖøËßíÂ∫¶ËÆ°ÁÆó
  57:Core/Src/robocontrol.c ****     float phi1 = atan2f(y, x) - atan2f(L2 * sinf(phi2), L1 + L2 * cosf(phi2));
 355              		.loc 1 57 5 is_stmt 1 view .LVU77
 356              		.loc 1 57 18 is_stmt 0 view .LVU78
 357 007a F0EE490A 		vmov.f32	s1, s18
 358 007e B0EE480A 		vmov.f32	s0, s16
 359              	.LVL19:
 360              		.loc 1 57 18 view .LVU79
 361 0082 FFF7FEFF 		bl	atan2f
 362              	.LVL20:
 363 0086 B0EE408A 		vmov.f32	s16, s0
 364              	.LVL21:
 365              		.loc 1 57 45 view .LVU80
 366 008a B0EE680A 		vmov.f32	s0, s17
 367 008e FFF7FEFF 		bl	sinf
 368              	.LVL22:
 369 0092 B0EE409A 		vmov.f32	s18, s0
 370              	.LVL23:
 371              		.loc 1 57 67 view .LVU81
 372 0096 B0EE680A 		vmov.f32	s0, s17
 373 009a FFF7FEFF 		bl	cosf
 374              	.LVL24:
 375              		.loc 1 57 65 view .LVU82
 376 009e 9FED237A 		vldr.32	s14, .L31+28
 377 00a2 20EE070A 		vmul.f32	s0, s0, s14
 378              		.loc 1 57 33 view .LVU83
 379 00a6 DFED220A 		vldr.32	s1, .L31+32
 380 00aa 70EE200A 		vadd.f32	s1, s0, s1
 381 00ae 29EE070A 		vmul.f32	s0, s18, s14
 382 00b2 FFF7FEFF 		bl	atan2f
 383              	.LVL25:
 384              		.loc 1 57 11 view .LVU84
 385 00b6 38EE407A 		vsub.f32	s14, s16, s0
 386              	.LVL26:
  58:Core/Src/robocontrol.c **** 
  59:Core/Src/robocontrol.c ****     // ÂºßÂ∫¶ËΩ¨Êç¢‰∏∫ËßíÂ∫¶ÔºåÂπ∂ÈôêÂà∂Âú®[0, 180]Â∫¶ËåÉÂõ¥
  60:Core/Src/robocontrol.c ****     *theta1 = fminf(fmaxf(phi1 * 180.0f / M_PI, 0), 180);  // Â§ßËÖøËßíÂ∫¶
 387              		.loc 1 60 5 is_stmt 1 view .LVU85
 388              		.loc 1 60 32 is_stmt 0 view .LVU86
 389 00ba 9FED1E0A 		vldr.32	s0, .L31+36
 390 00be 27EE007A 		vmul.f32	s14, s14, s0
 391              	.LVL27:
 392              		.loc 1 60 32 view .LVU87
 393 00c2 B7EEC77A 		vcvt.f64.f32	d7, s14
 394              		.loc 1 60 41 view .LVU88
 395 00c6 9FED125B 		vldr.64	d5, .L31
 396 00ca 87EE056B 		vdiv.f64	d6, d7, d5
 397              		.loc 1 60 15 view .LVU89
ARM GAS  C:\Users\25750\AppData\Local\Temp\ccxGdRMs.s 			page 9


 398 00ce B7EEC66B 		vcvt.f32.f64	s12, d6
 399 00d2 DFED197A 		vldr.32	s15, .L31+40
 400 00d6 86FE276A 		vmaxnm.f32	s12, s12, s15
 401 00da 86FE406A 		vminnm.f32	s12, s12, s0
 402              		.loc 1 60 13 view .LVU90
 403 00de 85ED006A 		vstr.32	s12, [r5]
  61:Core/Src/robocontrol.c **** 
  62:Core/Src/robocontrol.c ****     // Â∞ÜÂ∞èËÖøËßíÂ∫¶ÈôêÂà∂
  63:Core/Src/robocontrol.c ****     *theta2 = fminf(fmaxf(phi2 * 180.0f / M_PI, MIN_KNEE_ANGLE), MAX_KNEE_ANGLE);  // Â∞èËÖøËßíÂ∫¶
 404              		.loc 1 63 5 is_stmt 1 view .LVU91
 405              		.loc 1 63 32 is_stmt 0 view .LVU92
 406 00e2 28EE800A 		vmul.f32	s0, s17, s0
 407 00e6 B7EEC00A 		vcvt.f64.f32	d0, s0
 408              		.loc 1 63 41 view .LVU93
 409 00ea 80EE057B 		vdiv.f64	d7, d0, d5
 410              		.loc 1 63 15 view .LVU94
 411 00ee B7EEC77B 		vcvt.f32.f64	s14, d7
 412 00f2 DFED127A 		vldr.32	s15, .L31+44
 413 00f6 87FE277A 		vmaxnm.f32	s14, s14, s15
 414 00fa DFED117A 		vldr.32	s15, .L31+48
 415 00fe 87FE677A 		vminnm.f32	s14, s14, s15
 416              		.loc 1 63 13 view .LVU95
 417 0102 84ED007A 		vstr.32	s14, [r4]
  64:Core/Src/robocontrol.c **** }
 418              		.loc 1 64 1 view .LVU96
 419 0106 BDEC048B 		vldm	sp!, {d8-d9}
 420              	.LCFI3:
 421              		.cfi_restore 82
 422              		.cfi_restore 83
 423              		.cfi_restore 80
 424              		.cfi_restore 81
 425              		.cfi_def_cfa_offset 16
 426              		.loc 1 64 1 view .LVU97
 427 010a 38BD     		pop	{r3, r4, r5, pc}
 428              	.LVL28:
 429              	.L32:
 430              		.loc 1 64 1 view .LVU98
 431 010c AFF30080 		.align	3
 432              	.L31:
 433 0110 182D4454 		.word	1413754136
 434 0114 FB210940 		.word	1074340347
 435 0118 66A61543 		.word	1125492326
 436 011c 68664241 		.word	1094870632
 437 0120 7B86CC45 		.word	1171031675
 438 0124 80B49345 		.word	1167307904
 439 0128 00CF2D46 		.word	1177407232
 440 012c 00808942 		.word	1116307456
 441 0130 CDCCA142 		.word	1117899981
 442 0134 00003443 		.word	1127481344
 443 0138 00000000 		.word	0
 444 013c 0000DC42 		.word	1121714176
 445 0140 00008C42 		.word	1116471296
 446              		.cfi_endproc
 447              	.LFE154:
 449              		.section	.text.GetServoIDForLeg,"ax",%progbits
 450              		.align	1
 451              		.global	GetServoIDForLeg
ARM GAS  C:\Users\25750\AppData\Local\Temp\ccxGdRMs.s 			page 10


 452              		.syntax unified
 453              		.thumb
 454              		.thumb_func
 456              	GetServoIDForLeg:
 457              	.LVL29:
 458              	.LFB155:
  65:Core/Src/robocontrol.c **** 
  66:Core/Src/robocontrol.c **** 
  67:Core/Src/robocontrol.c **** 
  68:Core/Src/robocontrol.c **** /*** ËàµÊú∫Ê†áÂè∑Ëé∑ÂèñÂáΩÊï∞ ***/
  69:Core/Src/robocontrol.c **** ServoID GetServoIDForLeg(int leg, bool isUpperLeg) {
 459              		.loc 1 69 52 is_stmt 1 view -0
 460              		.cfi_startproc
 461              		@ args = 0, pretend = 0, frame = 0
 462              		@ frame_needed = 0, uses_anonymous_args = 0
 463              		@ link register save eliminated.
  70:Core/Src/robocontrol.c ****     if (isUpperLeg) {
 464              		.loc 1 70 5 view .LVU100
 465              		.loc 1 70 8 is_stmt 0 view .LVU101
 466 0000 19B1     		cbz	r1, .L34
  71:Core/Src/robocontrol.c ****         return (ServoID)((leg * 2) + 1);  // Â§ßËÖøËàµÊú∫ÔºàÂèåÊï∞Ôºâ
 467              		.loc 1 71 9 is_stmt 1 view .LVU102
 468              		.loc 1 71 16 is_stmt 0 view .LVU103
 469 0002 4000     		lsls	r0, r0, #1
 470              	.LVL30:
 471              		.loc 1 71 16 view .LVU104
 472 0004 0130     		adds	r0, r0, #1
 473 0006 C0B2     		uxtb	r0, r0
 474 0008 7047     		bx	lr
 475              	.LVL31:
 476              	.L34:
  72:Core/Src/robocontrol.c ****     } else {
  73:Core/Src/robocontrol.c ****         return (ServoID)((leg * 2));  // Â∞èËÖøËàµÊú∫ÔºàÂçïÊï∞Ôºâ
 477              		.loc 1 73 9 is_stmt 1 view .LVU105
 478              		.loc 1 73 31 is_stmt 0 view .LVU106
 479 000a C0B2     		uxtb	r0, r0
 480              	.LVL32:
 481              		.loc 1 73 16 view .LVU107
 482 000c 4000     		lsls	r0, r0, #1
 483 000e C0B2     		uxtb	r0, r0
  74:Core/Src/robocontrol.c ****     }
  75:Core/Src/robocontrol.c **** }
 484              		.loc 1 75 1 view .LVU108
 485 0010 7047     		bx	lr
 486              		.cfi_endproc
 487              	.LFE155:
 489              		.section	.text.Gait_Forward,"ax",%progbits
 490              		.align	1
 491              		.global	Gait_Forward
 492              		.syntax unified
 493              		.thumb
 494              		.thumb_func
 496              	Gait_Forward:
 497              	.LFB156:
  76:Core/Src/robocontrol.c **** 
  77:Core/Src/robocontrol.c **** /*** ÂâçËøõÊ≠•ÊÄÅÊéßÂà∂ ***/
  78:Core/Src/robocontrol.c **** void Gait_Forward(void) {
ARM GAS  C:\Users\25750\AppData\Local\Temp\ccxGdRMs.s 			page 11


 498              		.loc 1 78 25 is_stmt 1 view -0
 499              		.cfi_startproc
 500              		@ args = 0, pretend = 0, frame = 16
 501              		@ frame_needed = 0, uses_anonymous_args = 0
 502 0000 10B5     		push	{r4, lr}
 503              	.LCFI4:
 504              		.cfi_def_cfa_offset 8
 505              		.cfi_offset 4, -8
 506              		.cfi_offset 14, -4
 507 0002 2DED048B 		vpush.64	{d8, d9}
 508              	.LCFI5:
 509              		.cfi_def_cfa_offset 24
 510              		.cfi_offset 80, -24
 511              		.cfi_offset 81, -20
 512              		.cfi_offset 82, -16
 513              		.cfi_offset 83, -12
 514 0006 84B0     		sub	sp, sp, #16
 515              	.LCFI6:
 516              		.cfi_def_cfa_offset 40
  79:Core/Src/robocontrol.c ****     float phase_leg1_3 = 0.0;  // Leg 1 Âíå Leg 3 ÁöÑÂàùÂßãÁõ∏‰Ωç
 517              		.loc 1 79 5 view .LVU110
 518              	.LVL33:
  80:Core/Src/robocontrol.c ****     float phase_leg2_4 = 0.5;  // Leg 2 Âíå Leg 4 ÁöÑÂàùÂßãÁõ∏‰Ωç (Áõ∏ÂØπÊªûÂêé 0.5)
 519              		.loc 1 80 5 view .LVU111
 520              		.loc 1 80 11 is_stmt 0 view .LVU112
 521 0008 B6EE009A 		vmov.f32	s18, #5.0e-1
  79:Core/Src/robocontrol.c ****     float phase_leg1_3 = 0.0;  // Leg 1 Âíå Leg 3 ÁöÑÂàùÂßãÁõ∏‰Ωç
 522              		.loc 1 79 11 view .LVU113
 523 000c DFED7A9A 		vldr.32	s19, .L73+8
 524 0010 ECE0     		b	.L57
 525              	.LVL34:
 526              	.L70:
 527              	.LBB2:
 528              	.LBB3:
  81:Core/Src/robocontrol.c **** 
  82:Core/Src/robocontrol.c ****     while (true) {
  83:Core/Src/robocontrol.c ****         // ÊéßÂà∂ Leg 1 Âíå Leg 3 (Â∑¶ÂâçÂè≥Âêé)
  84:Core/Src/robocontrol.c ****         for (int leg = 0; leg < 4; leg += 2) {  // leg == 0 -> Leg 1, leg == 2 -> Leg 3
  85:Core/Src/robocontrol.c ****             float x, y;
  86:Core/Src/robocontrol.c ****             CalculateGait(phase_leg1_3, &x, &y);  // ËÆ°ÁÆóË∂≥Â∞ñ‰ΩçÁΩÆ
  87:Core/Src/robocontrol.c ****             float theta1, theta2;
  88:Core/Src/robocontrol.c ****             InverseKinematics(x, y, &theta1, &theta2);  // ËÆ°ÁÆóÂÖ≥ËäÇËßíÂ∫¶
  89:Core/Src/robocontrol.c **** 
  90:Core/Src/robocontrol.c ****             // ÊéßÂà∂Â§ßËÖøÂíåÂ∞èËÖøËàµÊú∫
  91:Core/Src/robocontrol.c ****             if (leg == 0) {  // Leg 1 (Â∑¶ÂâçËÖø)
  92:Core/Src/robocontrol.c ****                 Set_Servo_Angle(GetServoIDForLeg(leg, true), 90 - theta1);  // ËÆæÁΩÆÂ§ßËÖøËßíÂ∫¶
 529              		.loc 1 92 17 is_stmt 1 view .LVU114
 530 0012 0121     		movs	r1, #1
 531 0014 2046     		mov	r0, r4
 532 0016 FFF7FEFF 		bl	GetServoIDForLeg
 533              	.LVL35:
 534 001a DFED788A 		vldr.32	s17, .L73+12
 535 001e 9DED020A 		vldr.32	s0, [sp, #8]
 536 0022 38EEC00A 		vsub.f32	s0, s17, s0
 537 0026 FFF7FEFF 		bl	Set_Servo_Angle
 538              	.LVL36:
  93:Core/Src/robocontrol.c ****                 if(theta2 - 90 <= 20)
ARM GAS  C:\Users\25750\AppData\Local\Temp\ccxGdRMs.s 			page 12


 539              		.loc 1 93 17 view .LVU115
 540              		.loc 1 93 27 is_stmt 0 view .LVU116
 541 002a 9DED038A 		vldr.32	s16, [sp, #12]
 542 002e 38EE688A 		vsub.f32	s16, s16, s17
 543              		.loc 1 93 19 view .LVU117
 544 0032 F3EE047A 		vmov.f32	s15, #2.0e+1
 545 0036 B4EEE78A 		vcmpe.f32	s16, s15
 546 003a F1EE10FA 		vmrs	APSR_nzcv, FPSCR
 547 003e 08D8     		bhi	.L64
  94:Core/Src/robocontrol.c ****                     Set_Servo_Angle(GetServoIDForLeg(leg, false), 90 - (theta2 - 90));  // Â∞èËÖøËß
 548              		.loc 1 94 21 is_stmt 1 view .LVU118
 549 0040 0021     		movs	r1, #0
 550 0042 2046     		mov	r0, r4
 551 0044 FFF7FEFF 		bl	GetServoIDForLeg
 552              	.LVL37:
 553 0048 38EEC80A 		vsub.f32	s0, s17, s16
 554 004c FFF7FEFF 		bl	Set_Servo_Angle
 555              	.LVL38:
 556 0050 10E0     		b	.L41
 557              	.L64:
  95:Core/Src/robocontrol.c ****                 else
  96:Core/Src/robocontrol.c ****                     Set_Servo_Angle(GetServoIDForLeg(leg, false), 90 - 20);
 558              		.loc 1 96 21 view .LVU119
 559 0052 0021     		movs	r1, #0
 560 0054 2046     		mov	r0, r4
 561 0056 FFF7FEFF 		bl	GetServoIDForLeg
 562              	.LVL39:
 563 005a 9FED690A 		vldr.32	s0, .L73+16
 564 005e FFF7FEFF 		bl	Set_Servo_Angle
 565              	.LVL40:
 566 0062 07E0     		b	.L41
 567              	.L65:
  97:Core/Src/robocontrol.c **** 
  98:Core/Src/robocontrol.c ****             } else {  // Leg 3 (Âè≥ÂêéËÖø)
  99:Core/Src/robocontrol.c ****                 Set_Servo_Angle(GetServoIDForLeg(leg, true), 90 + theta1);  // ËÆæÁΩÆÂ§ßËÖøËßíÂ∫¶
 100:Core/Src/robocontrol.c ****                 if(theta2 - 90 <= 20)
 101:Core/Src/robocontrol.c ****                     Set_Servo_Angle(GetServoIDForLeg(leg, false), 90 + (theta2 - 90));  // Â∞èËÖøËß
 102:Core/Src/robocontrol.c ****                 else
 103:Core/Src/robocontrol.c ****                     Set_Servo_Angle(GetServoIDForLeg(leg, false), 90 + 20);
 568              		.loc 1 103 21 view .LVU120
 569 0064 0021     		movs	r1, #0
 570 0066 2046     		mov	r0, r4
 571 0068 FFF7FEFF 		bl	GetServoIDForLeg
 572              	.LVL41:
 573 006c 9FED650A 		vldr.32	s0, .L73+20
 574 0070 FFF7FEFF 		bl	Set_Servo_Angle
 575              	.LVL42:
 576              	.L41:
 577              		.loc 1 103 21 is_stmt 0 view .LVU121
 578              	.LBE3:
  84:Core/Src/robocontrol.c ****             float x, y;
 579              		.loc 1 84 36 is_stmt 1 discriminator 1 view .LVU122
  84:Core/Src/robocontrol.c ****             float x, y;
 580              		.loc 1 84 40 is_stmt 0 discriminator 1 view .LVU123
 581 0074 0234     		adds	r4, r4, #2
 582              	.LVL43:
 583              	.L37:
ARM GAS  C:\Users\25750\AppData\Local\Temp\ccxGdRMs.s 			page 13


  84:Core/Src/robocontrol.c ****             float x, y;
 584              		.loc 1 84 27 is_stmt 1 discriminator 2 view .LVU124
  84:Core/Src/robocontrol.c ****             float x, y;
 585              		.loc 1 84 9 is_stmt 0 discriminator 2 view .LVU125
 586 0076 032C     		cmp	r4, #3
 587 0078 2FDC     		bgt	.L69
 588              	.LBB4:
  85:Core/Src/robocontrol.c ****             CalculateGait(phase_leg1_3, &x, &y);  // ËÆ°ÁÆóË∂≥Â∞ñ‰ΩçÁΩÆ
 589              		.loc 1 85 13 is_stmt 1 view .LVU126
  86:Core/Src/robocontrol.c ****             float theta1, theta2;
 590              		.loc 1 86 13 view .LVU127
 591 007a 01A9     		add	r1, sp, #4
 592 007c 6846     		mov	r0, sp
 593 007e B0EE690A 		vmov.f32	s0, s19
 594 0082 FFF7FEFF 		bl	CalculateGait
 595              	.LVL44:
  87:Core/Src/robocontrol.c ****             InverseKinematics(x, y, &theta1, &theta2);  // ËÆ°ÁÆóÂÖ≥ËäÇËßíÂ∫¶
 596              		.loc 1 87 13 view .LVU128
  88:Core/Src/robocontrol.c **** 
 597              		.loc 1 88 13 view .LVU129
 598 0086 03A9     		add	r1, sp, #12
 599 0088 02A8     		add	r0, sp, #8
 600 008a DDED010A 		vldr.32	s1, [sp, #4]
 601 008e 9DED000A 		vldr.32	s0, [sp]
 602 0092 FFF7FEFF 		bl	InverseKinematics
 603              	.LVL45:
  91:Core/Src/robocontrol.c ****                 Set_Servo_Angle(GetServoIDForLeg(leg, true), 90 - theta1);  // ËÆæÁΩÆÂ§ßËÖøËßíÂ∫¶
 604              		.loc 1 91 13 view .LVU130
  91:Core/Src/robocontrol.c ****                 Set_Servo_Angle(GetServoIDForLeg(leg, true), 90 - theta1);  // ËÆæÁΩÆÂ§ßËÖøËßíÂ∫¶
 605              		.loc 1 91 16 is_stmt 0 view .LVU131
 606 0096 002C     		cmp	r4, #0
 607 0098 BBD0     		beq	.L70
  99:Core/Src/robocontrol.c ****                 if(theta2 - 90 <= 20)
 608              		.loc 1 99 17 is_stmt 1 view .LVU132
 609 009a 0121     		movs	r1, #1
 610 009c 2046     		mov	r0, r4
 611 009e FFF7FEFF 		bl	GetServoIDForLeg
 612              	.LVL46:
 613 00a2 DFED568A 		vldr.32	s17, .L73+12
 614 00a6 9DED020A 		vldr.32	s0, [sp, #8]
 615 00aa 30EE280A 		vadd.f32	s0, s0, s17
 616 00ae FFF7FEFF 		bl	Set_Servo_Angle
 617              	.LVL47:
 100:Core/Src/robocontrol.c ****                     Set_Servo_Angle(GetServoIDForLeg(leg, false), 90 + (theta2 - 90));  // Â∞èËÖøËß
 618              		.loc 1 100 17 view .LVU133
 100:Core/Src/robocontrol.c ****                     Set_Servo_Angle(GetServoIDForLeg(leg, false), 90 + (theta2 - 90));  // Â∞èËÖøËß
 619              		.loc 1 100 27 is_stmt 0 view .LVU134
 620 00b2 9DED038A 		vldr.32	s16, [sp, #12]
 621 00b6 38EE688A 		vsub.f32	s16, s16, s17
 100:Core/Src/robocontrol.c ****                     Set_Servo_Angle(GetServoIDForLeg(leg, false), 90 + (theta2 - 90));  // Â∞èËÖøËß
 622              		.loc 1 100 19 view .LVU135
 623 00ba F3EE047A 		vmov.f32	s15, #2.0e+1
 624 00be B4EEE78A 		vcmpe.f32	s16, s15
 625 00c2 F1EE10FA 		vmrs	APSR_nzcv, FPSCR
 626 00c6 CDD8     		bhi	.L65
 101:Core/Src/robocontrol.c ****                 else
 627              		.loc 1 101 21 is_stmt 1 view .LVU136
ARM GAS  C:\Users\25750\AppData\Local\Temp\ccxGdRMs.s 			page 14


 628 00c8 0021     		movs	r1, #0
 629 00ca 2046     		mov	r0, r4
 630 00cc FFF7FEFF 		bl	GetServoIDForLeg
 631              	.LVL48:
 632 00d0 38EE280A 		vadd.f32	s0, s16, s17
 633 00d4 FFF7FEFF 		bl	Set_Servo_Angle
 634              	.LVL49:
 635 00d8 CCE7     		b	.L41
 636              	.L69:
 101:Core/Src/robocontrol.c ****                 else
 637              		.loc 1 101 21 is_stmt 0 view .LVU137
 638              	.LBE4:
 639              	.LBE2:
 640              	.LBB5:
 104:Core/Src/robocontrol.c ****             }
 105:Core/Src/robocontrol.c ****         }
 106:Core/Src/robocontrol.c **** 
 107:Core/Src/robocontrol.c ****         // ÊéßÂà∂ Leg 2 Âíå Leg 4 (Âè≥ÂâçÂ∑¶Âêé)
 108:Core/Src/robocontrol.c ****         for (int leg = 1; leg < 4; leg += 2) {  // leg == 1 -> Leg 2, leg == 3 -> Leg 4
 641              		.loc 1 108 18 view .LVU138
 642 00da 0124     		movs	r4, #1
 643              	.LVL50:
 644              		.loc 1 108 18 view .LVU139
 645 00dc 31E0     		b	.L45
 646              	.LVL51:
 647              	.L72:
 648              	.LBB6:
 109:Core/Src/robocontrol.c ****             float x, y;
 110:Core/Src/robocontrol.c ****             CalculateGait(phase_leg2_4, &x, &y);  // ËÆ°ÁÆóË∂≥Â∞ñ‰ΩçÁΩÆ
 111:Core/Src/robocontrol.c ****             float theta1, theta2;
 112:Core/Src/robocontrol.c ****             InverseKinematics(x, y, &theta1, &theta2);  // ËÆ°ÁÆóÂÖ≥ËäÇËßíÂ∫¶
 113:Core/Src/robocontrol.c **** 
 114:Core/Src/robocontrol.c ****             // ÊéßÂà∂Â§ßËÖøÂíåÂ∞èËÖøËàµÊú∫
 115:Core/Src/robocontrol.c ****             if (leg == 1) {  // Leg 2 (Âè≥ÂâçËÖø)
 116:Core/Src/robocontrol.c ****                 Set_Servo_Angle(GetServoIDForLeg(leg, true), 90 - theta1);  // ËÆæÁΩÆÂ§ßËÖøËßíÂ∫¶
 649              		.loc 1 116 17 is_stmt 1 view .LVU140
 650 00de 0121     		movs	r1, #1
 651 00e0 2046     		mov	r0, r4
 652 00e2 FFF7FEFF 		bl	GetServoIDForLeg
 653              	.LVL52:
 654 00e6 DFED458A 		vldr.32	s17, .L73+12
 655 00ea 9DED020A 		vldr.32	s0, [sp, #8]
 656 00ee 38EEC00A 		vsub.f32	s0, s17, s0
 657 00f2 FFF7FEFF 		bl	Set_Servo_Angle
 658              	.LVL53:
 117:Core/Src/robocontrol.c ****                 if(theta2 - 90 <= 20)
 659              		.loc 1 117 17 view .LVU141
 660              		.loc 1 117 27 is_stmt 0 view .LVU142
 661 00f6 9DED038A 		vldr.32	s16, [sp, #12]
 662 00fa 38EE688A 		vsub.f32	s16, s16, s17
 663              		.loc 1 117 19 view .LVU143
 664 00fe F3EE047A 		vmov.f32	s15, #2.0e+1
 665 0102 B4EEE78A 		vcmpe.f32	s16, s15
 666 0106 F1EE10FA 		vmrs	APSR_nzcv, FPSCR
 667 010a 08D8     		bhi	.L66
 118:Core/Src/robocontrol.c ****                     Set_Servo_Angle(GetServoIDForLeg(leg, false), 90 - (theta2 - 90));  // Â∞èËÖøËß
 668              		.loc 1 118 21 is_stmt 1 view .LVU144
ARM GAS  C:\Users\25750\AppData\Local\Temp\ccxGdRMs.s 			page 15


 669 010c 0021     		movs	r1, #0
 670 010e 2046     		mov	r0, r4
 671 0110 FFF7FEFF 		bl	GetServoIDForLeg
 672              	.LVL54:
 673 0114 38EEC80A 		vsub.f32	s0, s17, s16
 674 0118 FFF7FEFF 		bl	Set_Servo_Angle
 675              	.LVL55:
 676 011c 10E0     		b	.L49
 677              	.L66:
 119:Core/Src/robocontrol.c ****                 else
 120:Core/Src/robocontrol.c ****                     Set_Servo_Angle(GetServoIDForLeg(leg, false), 90 - 20);
 678              		.loc 1 120 21 view .LVU145
 679 011e 0021     		movs	r1, #0
 680 0120 2046     		mov	r0, r4
 681 0122 FFF7FEFF 		bl	GetServoIDForLeg
 682              	.LVL56:
 683 0126 9FED360A 		vldr.32	s0, .L73+16
 684 012a FFF7FEFF 		bl	Set_Servo_Angle
 685              	.LVL57:
 686 012e 07E0     		b	.L49
 687              	.L67:
 121:Core/Src/robocontrol.c ****             } else {  // Leg 4 (Â∑¶ÂêéËÖø)
 122:Core/Src/robocontrol.c ****                 Set_Servo_Angle(GetServoIDForLeg(leg, true), 90 + theta1);  // ËÆæÁΩÆÂ§ßËÖøËßíÂ∫¶
 123:Core/Src/robocontrol.c ****                 if(theta2 - 90 <= 20)
 124:Core/Src/robocontrol.c ****                     Set_Servo_Angle(GetServoIDForLeg(leg, false), 90 + (theta2 - 90));  // Â∞èËÖøËß
 125:Core/Src/robocontrol.c ****                 else
 126:Core/Src/robocontrol.c ****                     Set_Servo_Angle(GetServoIDForLeg(leg, false), 90 + 20);
 688              		.loc 1 126 21 view .LVU146
 689 0130 0021     		movs	r1, #0
 690 0132 2046     		mov	r0, r4
 691 0134 FFF7FEFF 		bl	GetServoIDForLeg
 692              	.LVL58:
 693 0138 9FED320A 		vldr.32	s0, .L73+20
 694 013c FFF7FEFF 		bl	Set_Servo_Angle
 695              	.LVL59:
 696              	.L49:
 697              		.loc 1 126 21 is_stmt 0 view .LVU147
 698              	.LBE6:
 108:Core/Src/robocontrol.c ****             float x, y;
 699              		.loc 1 108 36 is_stmt 1 discriminator 2 view .LVU148
 108:Core/Src/robocontrol.c ****             float x, y;
 700              		.loc 1 108 40 is_stmt 0 discriminator 2 view .LVU149
 701 0140 0234     		adds	r4, r4, #2
 702              	.LVL60:
 703              	.L45:
 108:Core/Src/robocontrol.c ****             float x, y;
 704              		.loc 1 108 27 is_stmt 1 discriminator 2 view .LVU150
 108:Core/Src/robocontrol.c ****             float x, y;
 705              		.loc 1 108 9 is_stmt 0 discriminator 2 view .LVU151
 706 0142 032C     		cmp	r4, #3
 707 0144 2FDC     		bgt	.L71
 708              	.LBB7:
 109:Core/Src/robocontrol.c ****             CalculateGait(phase_leg2_4, &x, &y);  // ËÆ°ÁÆóË∂≥Â∞ñ‰ΩçÁΩÆ
 709              		.loc 1 109 13 is_stmt 1 view .LVU152
 110:Core/Src/robocontrol.c ****             float theta1, theta2;
 710              		.loc 1 110 13 view .LVU153
 711 0146 01A9     		add	r1, sp, #4
ARM GAS  C:\Users\25750\AppData\Local\Temp\ccxGdRMs.s 			page 16


 712 0148 6846     		mov	r0, sp
 713 014a B0EE490A 		vmov.f32	s0, s18
 714 014e FFF7FEFF 		bl	CalculateGait
 715              	.LVL61:
 111:Core/Src/robocontrol.c ****             InverseKinematics(x, y, &theta1, &theta2);  // ËÆ°ÁÆóÂÖ≥ËäÇËßíÂ∫¶
 716              		.loc 1 111 13 view .LVU154
 112:Core/Src/robocontrol.c **** 
 717              		.loc 1 112 13 view .LVU155
 718 0152 03A9     		add	r1, sp, #12
 719 0154 02A8     		add	r0, sp, #8
 720 0156 DDED010A 		vldr.32	s1, [sp, #4]
 721 015a 9DED000A 		vldr.32	s0, [sp]
 722 015e FFF7FEFF 		bl	InverseKinematics
 723              	.LVL62:
 115:Core/Src/robocontrol.c ****                 Set_Servo_Angle(GetServoIDForLeg(leg, true), 90 - theta1);  // ËÆæÁΩÆÂ§ßËÖøËßíÂ∫¶
 724              		.loc 1 115 13 view .LVU156
 115:Core/Src/robocontrol.c ****                 Set_Servo_Angle(GetServoIDForLeg(leg, true), 90 - theta1);  // ËÆæÁΩÆÂ§ßËÖøËßíÂ∫¶
 725              		.loc 1 115 16 is_stmt 0 view .LVU157
 726 0162 012C     		cmp	r4, #1
 727 0164 BBD0     		beq	.L72
 122:Core/Src/robocontrol.c ****                 if(theta2 - 90 <= 20)
 728              		.loc 1 122 17 is_stmt 1 view .LVU158
 729 0166 0121     		movs	r1, #1
 730 0168 2046     		mov	r0, r4
 731 016a FFF7FEFF 		bl	GetServoIDForLeg
 732              	.LVL63:
 733 016e DFED238A 		vldr.32	s17, .L73+12
 734 0172 9DED020A 		vldr.32	s0, [sp, #8]
 735 0176 30EE280A 		vadd.f32	s0, s0, s17
 736 017a FFF7FEFF 		bl	Set_Servo_Angle
 737              	.LVL64:
 123:Core/Src/robocontrol.c ****                     Set_Servo_Angle(GetServoIDForLeg(leg, false), 90 + (theta2 - 90));  // Â∞èËÖøËß
 738              		.loc 1 123 17 view .LVU159
 123:Core/Src/robocontrol.c ****                     Set_Servo_Angle(GetServoIDForLeg(leg, false), 90 + (theta2 - 90));  // Â∞èËÖøËß
 739              		.loc 1 123 27 is_stmt 0 view .LVU160
 740 017e 9DED038A 		vldr.32	s16, [sp, #12]
 741 0182 38EE688A 		vsub.f32	s16, s16, s17
 123:Core/Src/robocontrol.c ****                     Set_Servo_Angle(GetServoIDForLeg(leg, false), 90 + (theta2 - 90));  // Â∞èËÖøËß
 742              		.loc 1 123 19 view .LVU161
 743 0186 F3EE047A 		vmov.f32	s15, #2.0e+1
 744 018a B4EEE78A 		vcmpe.f32	s16, s15
 745 018e F1EE10FA 		vmrs	APSR_nzcv, FPSCR
 746 0192 CDD8     		bhi	.L67
 124:Core/Src/robocontrol.c ****                 else
 747              		.loc 1 124 21 is_stmt 1 view .LVU162
 748 0194 0021     		movs	r1, #0
 749 0196 2046     		mov	r0, r4
 750 0198 FFF7FEFF 		bl	GetServoIDForLeg
 751              	.LVL65:
 752 019c 38EE280A 		vadd.f32	s0, s16, s17
 753 01a0 FFF7FEFF 		bl	Set_Servo_Angle
 754              	.LVL66:
 755 01a4 CCE7     		b	.L49
 756              	.L71:
 124:Core/Src/robocontrol.c ****                 else
 757              		.loc 1 124 21 is_stmt 0 view .LVU163
 758              	.LBE7:
ARM GAS  C:\Users\25750\AppData\Local\Temp\ccxGdRMs.s 			page 17


 759              	.LBE5:
 127:Core/Src/robocontrol.c ****             }
 128:Core/Src/robocontrol.c ****         }
 129:Core/Src/robocontrol.c **** 
 130:Core/Src/robocontrol.c ****         // Êõ¥Êñ∞Áõ∏‰ΩçÔºåÁ°Æ‰øùÂêåÊ≠•Ê≠•ÊÄÅ
 131:Core/Src/robocontrol.c ****         phase_leg1_3 += 0.1;
 760              		.loc 1 131 9 is_stmt 1 view .LVU164
 761              		.loc 1 131 22 is_stmt 0 view .LVU165
 762 01a6 B7EEE97A 		vcvt.f64.f32	d7, s19
 763 01aa 9FED116B 		vldr.64	d6, .L73
 764 01ae 37EE067B 		vadd.f64	d7, d7, d6
 765 01b2 F7EEC79B 		vcvt.f32.f64	s19, d7
 766              	.LVL67:
 132:Core/Src/robocontrol.c ****         phase_leg2_4 += 0.1;
 767              		.loc 1 132 9 is_stmt 1 view .LVU166
 768              		.loc 1 132 22 is_stmt 0 view .LVU167
 769 01b6 B7EEC90A 		vcvt.f64.f32	d0, s18
 770 01ba 30EE060B 		vadd.f64	d0, d0, d6
 771 01be B7EEC09B 		vcvt.f32.f64	s18, d0
 772              	.LVL68:
 133:Core/Src/robocontrol.c ****         if (phase_leg1_3 >= 1.0) phase_leg1_3 -= 1.0;
 773              		.loc 1 133 9 is_stmt 1 view .LVU168
 774              		.loc 1 133 12 is_stmt 0 view .LVU169
 775 01c2 F7EE007A 		vmov.f32	s15, #1.0e+0
 776 01c6 F4EEE79A 		vcmpe.f32	s19, s15
 777 01ca F1EE10FA 		vmrs	APSR_nzcv, FPSCR
 778 01ce 01DB     		blt	.L53
 779              		.loc 1 133 34 is_stmt 1 discriminator 1 view .LVU170
 780              		.loc 1 133 47 is_stmt 0 discriminator 1 view .LVU171
 781 01d0 79EEE79A 		vsub.f32	s19, s19, s15
 782              	.LVL69:
 783              	.L53:
 134:Core/Src/robocontrol.c ****         if (phase_leg2_4 >= 1.0) phase_leg2_4 -= 1.0;
 784              		.loc 1 134 9 is_stmt 1 view .LVU172
 785              		.loc 1 134 12 is_stmt 0 view .LVU173
 786 01d4 F7EE007A 		vmov.f32	s15, #1.0e+0
 787 01d8 B4EEE79A 		vcmpe.f32	s18, s15
 788 01dc F1EE10FA 		vmrs	APSR_nzcv, FPSCR
 789 01e0 01DB     		blt	.L55
 790              		.loc 1 134 34 is_stmt 1 discriminator 1 view .LVU174
 791              		.loc 1 134 47 is_stmt 0 discriminator 1 view .LVU175
 792 01e2 39EE679A 		vsub.f32	s18, s18, s15
 793              	.LVL70:
 794              	.L55:
 135:Core/Src/robocontrol.c **** 
 136:Core/Src/robocontrol.c ****         vTaskDelay(pdMS_TO_TICKS(50));  // Âª∂Êó∂ 50 ÊØ´ÁßíÔºåÊéßÂà∂Ê≠•ÊÄÅËäÇÂ•è
 795              		.loc 1 136 9 is_stmt 1 view .LVU176
 796 01e6 3220     		movs	r0, #50
 797 01e8 FFF7FEFF 		bl	vTaskDelay
 798              	.LVL71:
  82:Core/Src/robocontrol.c ****         // ÊéßÂà∂ Leg 1 Âíå Leg 3 (Â∑¶ÂâçÂè≥Âêé)
 799              		.loc 1 82 11 view .LVU177
 800              	.L57:
  82:Core/Src/robocontrol.c ****         // ÊéßÂà∂ Leg 1 Âíå Leg 3 (Â∑¶ÂâçÂè≥Âêé)
 801              		.loc 1 82 5 view .LVU178
  84:Core/Src/robocontrol.c ****             float x, y;
 802              		.loc 1 84 9 view .LVU179
ARM GAS  C:\Users\25750\AppData\Local\Temp\ccxGdRMs.s 			page 18


 803              	.LBB8:
  84:Core/Src/robocontrol.c ****             float x, y;
 804              		.loc 1 84 14 view .LVU180
  84:Core/Src/robocontrol.c ****             float x, y;
 805              		.loc 1 84 18 is_stmt 0 view .LVU181
 806 01ec 0024     		movs	r4, #0
  84:Core/Src/robocontrol.c ****             float x, y;
 807              		.loc 1 84 9 view .LVU182
 808 01ee 42E7     		b	.L37
 809              	.L74:
 810              		.align	3
 811              	.L73:
 812 01f0 9A999999 		.word	-1717986918
 813 01f4 9999B93F 		.word	1069128089
 814 01f8 00000000 		.word	0
 815 01fc 0000B442 		.word	1119092736
 816 0200 00008C42 		.word	1116471296
 817 0204 0000DC42 		.word	1121714176
 818              	.LBE8:
 819              		.cfi_endproc
 820              	.LFE156:
 822              		.section	.text.Gait_Backward,"ax",%progbits
 823              		.align	1
 824              		.global	Gait_Backward
 825              		.syntax unified
 826              		.thumb
 827              		.thumb_func
 829              	Gait_Backward:
 830              	.LFB157:
 137:Core/Src/robocontrol.c ****     }
 138:Core/Src/robocontrol.c **** }
 139:Core/Src/robocontrol.c **** 
 140:Core/Src/robocontrol.c **** 
 141:Core/Src/robocontrol.c **** 
 142:Core/Src/robocontrol.c **** 
 143:Core/Src/robocontrol.c **** 
 144:Core/Src/robocontrol.c **** /*** ÂêéÈÄÄÊ≠•ÊÄÅÊéßÂà∂ ***/
 145:Core/Src/robocontrol.c **** void Gait_Backward(void) {
 831              		.loc 1 145 26 is_stmt 1 view -0
 832              		.cfi_startproc
 833              		@ args = 0, pretend = 0, frame = 16
 834              		@ frame_needed = 0, uses_anonymous_args = 0
 835 0000 70B5     		push	{r4, r5, r6, lr}
 836              	.LCFI7:
 837              		.cfi_def_cfa_offset 16
 838              		.cfi_offset 4, -16
 839              		.cfi_offset 5, -12
 840              		.cfi_offset 6, -8
 841              		.cfi_offset 14, -4
 842 0002 84B0     		sub	sp, sp, #16
 843              	.LCFI8:
 844              		.cfi_def_cfa_offset 32
 146:Core/Src/robocontrol.c ****     for (int leg = 0; leg < NUM_SERVOS / 2; leg++) {
 845              		.loc 1 146 5 view .LVU184
 846              	.LBB9:
 847              		.loc 1 146 10 view .LVU185
 848              	.LVL72:
ARM GAS  C:\Users\25750\AppData\Local\Temp\ccxGdRMs.s 			page 19


 849              		.loc 1 146 14 is_stmt 0 view .LVU186
 850 0004 0024     		movs	r4, #0
 851              		.loc 1 146 5 view .LVU187
 852 0006 26E0     		b	.L76
 853              	.LVL73:
 854              	.L79:
 855              	.LBB10:
 147:Core/Src/robocontrol.c ****         float time = (leg == 0 || leg == 3) ? 0.0 : 0.5;  // ÂØπËßíËÖøÂêåÊ≠•
 856              		.loc 1 147 51 view .LVU188
 857 0008 F6EE007A 		vmov.f32	s15, #5.0e-1
 858              	.L77:
 859              	.LVL74:
 148:Core/Src/robocontrol.c ****         float x, y;
 860              		.loc 1 148 9 is_stmt 1 discriminator 4 view .LVU189
 149:Core/Src/robocontrol.c ****         CalculateGait(1.0 - time, &x, &y);  // ÂèçÂêëËøêÂä®
 861              		.loc 1 149 9 discriminator 4 view .LVU190
 862 000c 01A9     		add	r1, sp, #4
 863 000e 6846     		mov	r0, sp
 864 0010 B7EE000A 		vmov.f32	s0, #1.0e+0
 865 0014 30EE670A 		vsub.f32	s0, s0, s15
 866 0018 FFF7FEFF 		bl	CalculateGait
 867              	.LVL75:
 150:Core/Src/robocontrol.c **** 
 151:Core/Src/robocontrol.c ****         float theta1, theta2;
 868              		.loc 1 151 9 discriminator 4 view .LVU191
 152:Core/Src/robocontrol.c ****         InverseKinematics(x, y, &theta1, &theta2);  // ËÆ°ÁÆóÂÖ≥ËäÇËßíÂ∫¶
 869              		.loc 1 152 9 discriminator 4 view .LVU192
 870 001c 03A9     		add	r1, sp, #12
 871 001e 02A8     		add	r0, sp, #8
 872 0020 DDED010A 		vldr.32	s1, [sp, #4]
 873 0024 9DED000A 		vldr.32	s0, [sp]
 874 0028 FFF7FEFF 		bl	InverseKinematics
 875              	.LVL76:
 153:Core/Src/robocontrol.c **** 
 154:Core/Src/robocontrol.c ****         // Â±ÄÈÉ®ÂèòÈáèÂÆö‰πâÔºåÊéßÂà∂Â§ßËÖøÂíåÂ∞èËÖøËàµÊú∫
 155:Core/Src/robocontrol.c ****         ServoID upperLegServo = GetServoIDForLeg(leg, true);
 876              		.loc 1 155 9 discriminator 4 view .LVU193
 877              		.loc 1 155 33 is_stmt 0 discriminator 4 view .LVU194
 878 002c 0121     		movs	r1, #1
 879 002e 2046     		mov	r0, r4
 880 0030 FFF7FEFF 		bl	GetServoIDForLeg
 881              	.LVL77:
 882 0034 0646     		mov	r6, r0
 883              	.LVL78:
 156:Core/Src/robocontrol.c ****         ServoID lowerLegServo = GetServoIDForLeg(leg, false);
 884              		.loc 1 156 9 is_stmt 1 discriminator 4 view .LVU195
 885              		.loc 1 156 33 is_stmt 0 discriminator 4 view .LVU196
 886 0036 0021     		movs	r1, #0
 887 0038 2046     		mov	r0, r4
 888 003a FFF7FEFF 		bl	GetServoIDForLeg
 889              	.LVL79:
 890 003e 0546     		mov	r5, r0
 891              	.LVL80:
 157:Core/Src/robocontrol.c **** 
 158:Core/Src/robocontrol.c ****         Set_Servo_Angle(upperLegServo, theta1);  // ÊéßÂà∂Â§ßËÖøËàµÊú∫
 892              		.loc 1 158 9 is_stmt 1 discriminator 4 view .LVU197
 893 0040 9DED020A 		vldr.32	s0, [sp, #8]
ARM GAS  C:\Users\25750\AppData\Local\Temp\ccxGdRMs.s 			page 20


 894 0044 3046     		mov	r0, r6
 895 0046 FFF7FEFF 		bl	Set_Servo_Angle
 896              	.LVL81:
 159:Core/Src/robocontrol.c ****         Set_Servo_Angle(lowerLegServo, theta2);  // ÊéßÂà∂Â∞èËÖøËàµÊú∫
 897              		.loc 1 159 9 discriminator 4 view .LVU198
 898 004a 9DED030A 		vldr.32	s0, [sp, #12]
 899 004e 2846     		mov	r0, r5
 900 0050 FFF7FEFF 		bl	Set_Servo_Angle
 901              	.LVL82:
 902              	.LBE10:
 146:Core/Src/robocontrol.c ****         float time = (leg == 0 || leg == 3) ? 0.0 : 0.5;  // ÂØπËßíËÖøÂêåÊ≠•
 903              		.loc 1 146 45 discriminator 4 view .LVU199
 146:Core/Src/robocontrol.c ****         float time = (leg == 0 || leg == 3) ? 0.0 : 0.5;  // ÂØπËßíËÖøÂêåÊ≠•
 904              		.loc 1 146 48 is_stmt 0 discriminator 4 view .LVU200
 905 0054 0134     		adds	r4, r4, #1
 906              	.LVL83:
 907              	.L76:
 146:Core/Src/robocontrol.c ****         float time = (leg == 0 || leg == 3) ? 0.0 : 0.5;  // ÂØπËßíËÖøÂêåÊ≠•
 908              		.loc 1 146 23 is_stmt 1 discriminator 2 view .LVU201
 146:Core/Src/robocontrol.c ****         float time = (leg == 0 || leg == 3) ? 0.0 : 0.5;  // ÂØπËßíËÖøÂêåÊ≠•
 909              		.loc 1 146 5 is_stmt 0 discriminator 2 view .LVU202
 910 0056 032C     		cmp	r4, #3
 911 0058 06DC     		bgt	.L81
 912              	.LBB11:
 147:Core/Src/robocontrol.c ****         float x, y;
 913              		.loc 1 147 9 is_stmt 1 view .LVU203
 147:Core/Src/robocontrol.c ****         float x, y;
 914              		.loc 1 147 51 is_stmt 0 view .LVU204
 915 005a 032C     		cmp	r4, #3
 916 005c 18BF     		it	ne
 917 005e 002C     		cmpne	r4, #0
 918 0060 D2D1     		bne	.L79
 919 0062 DFED027A 		vldr.32	s15, .L82
 920 0066 D1E7     		b	.L77
 921              	.L81:
 922              	.LBE11:
 923              	.LBE9:
 160:Core/Src/robocontrol.c ****     }
 161:Core/Src/robocontrol.c **** }
 924              		.loc 1 161 1 view .LVU205
 925 0068 04B0     		add	sp, sp, #16
 926              	.LCFI9:
 927              		.cfi_def_cfa_offset 16
 928              		@ sp needed
 929 006a 70BD     		pop	{r4, r5, r6, pc}
 930              	.LVL84:
 931              	.L83:
 932              		.loc 1 161 1 view .LVU206
 933              		.align	2
 934              	.L82:
 935 006c 00000000 		.word	0
 936              		.cfi_endproc
 937              	.LFE157:
 939              		.section	.text.Gait_Turn_Left,"ax",%progbits
 940              		.align	1
 941              		.global	Gait_Turn_Left
 942              		.syntax unified
ARM GAS  C:\Users\25750\AppData\Local\Temp\ccxGdRMs.s 			page 21


 943              		.thumb
 944              		.thumb_func
 946              	Gait_Turn_Left:
 947              	.LFB158:
 162:Core/Src/robocontrol.c **** 
 163:Core/Src/robocontrol.c **** /*** Â∑¶ËΩ¨Ê≠•ÊÄÅÊéßÂà∂ ***/
 164:Core/Src/robocontrol.c **** void Gait_Turn_Left(void) {
 948              		.loc 1 164 27 is_stmt 1 view -0
 949              		.cfi_startproc
 950              		@ args = 0, pretend = 0, frame = 16
 951              		@ frame_needed = 0, uses_anonymous_args = 0
 952 0000 70B5     		push	{r4, r5, r6, lr}
 953              	.LCFI10:
 954              		.cfi_def_cfa_offset 16
 955              		.cfi_offset 4, -16
 956              		.cfi_offset 5, -12
 957              		.cfi_offset 6, -8
 958              		.cfi_offset 14, -4
 959 0002 84B0     		sub	sp, sp, #16
 960              	.LCFI11:
 961              		.cfi_def_cfa_offset 32
 165:Core/Src/robocontrol.c ****     for (int leg = 0; leg < NUM_SERVOS / 2; leg++) {
 962              		.loc 1 165 5 view .LVU208
 963              	.LBB12:
 964              		.loc 1 165 10 view .LVU209
 965              	.LVL85:
 966              		.loc 1 165 14 is_stmt 0 view .LVU210
 967 0004 0024     		movs	r4, #0
 968              		.loc 1 165 5 view .LVU211
 969 0006 23E0     		b	.L85
 970              	.LVL86:
 971              	.L90:
 972              	.LBB13:
 166:Core/Src/robocontrol.c ****         float time = (leg == 0 || leg == 3) ? 0.0 : 0.5;
 973              		.loc 1 166 51 view .LVU212
 974 0008 B6EE000A 		vmov.f32	s0, #5.0e-1
 975 000c 2BE0     		b	.L86
 976              	.LVL87:
 977              	.L87:
 167:Core/Src/robocontrol.c ****         float x, y;
 168:Core/Src/robocontrol.c **** 
 169:Core/Src/robocontrol.c ****         // Â∑¶‰æßËÖøÂêëÂêéÔºåÂè≥‰æßËÖøÂêëÂâç
 170:Core/Src/robocontrol.c ****         if (leg == 0 || leg == 3) {
 171:Core/Src/robocontrol.c ****             CalculateGait(1.0 - time, &x, &y);  // Â∑¶‰æßËÖøÂêéÁßª
 172:Core/Src/robocontrol.c ****         } else {
 173:Core/Src/robocontrol.c ****             CalculateGait(time, &x, &y);  // Âè≥‰æßËÖøÂâçÁßª
 978              		.loc 1 173 13 is_stmt 1 view .LVU213
 979 000e 01A9     		add	r1, sp, #4
 980 0010 6846     		mov	r0, sp
 981 0012 FFF7FEFF 		bl	CalculateGait
 982              	.LVL88:
 983              	.L88:
 174:Core/Src/robocontrol.c ****         }
 175:Core/Src/robocontrol.c **** 
 176:Core/Src/robocontrol.c ****         float theta1, theta2;
 984              		.loc 1 176 9 discriminator 2 view .LVU214
 177:Core/Src/robocontrol.c ****         InverseKinematics(x, y, &theta1, &theta2);
ARM GAS  C:\Users\25750\AppData\Local\Temp\ccxGdRMs.s 			page 22


 985              		.loc 1 177 9 discriminator 2 view .LVU215
 986 0016 03A9     		add	r1, sp, #12
 987 0018 02A8     		add	r0, sp, #8
 988 001a DDED010A 		vldr.32	s1, [sp, #4]
 989 001e 9DED000A 		vldr.32	s0, [sp]
 990 0022 FFF7FEFF 		bl	InverseKinematics
 991              	.LVL89:
 178:Core/Src/robocontrol.c **** 
 179:Core/Src/robocontrol.c ****         // Â±ÄÈÉ®ÂèòÈáèÂÆö‰πâÔºåÊéßÂà∂Â§ßËÖøÂíåÂ∞èËÖøËàµÊú∫
 180:Core/Src/robocontrol.c ****         ServoID upperLegServo = GetServoIDForLeg(leg, true);
 992              		.loc 1 180 9 discriminator 2 view .LVU216
 993              		.loc 1 180 33 is_stmt 0 discriminator 2 view .LVU217
 994 0026 0121     		movs	r1, #1
 995 0028 2046     		mov	r0, r4
 996 002a FFF7FEFF 		bl	GetServoIDForLeg
 997              	.LVL90:
 998 002e 0646     		mov	r6, r0
 999              	.LVL91:
 181:Core/Src/robocontrol.c ****         ServoID lowerLegServo = GetServoIDForLeg(leg, false);
 1000              		.loc 1 181 9 is_stmt 1 discriminator 2 view .LVU218
 1001              		.loc 1 181 33 is_stmt 0 discriminator 2 view .LVU219
 1002 0030 0021     		movs	r1, #0
 1003 0032 2046     		mov	r0, r4
 1004 0034 FFF7FEFF 		bl	GetServoIDForLeg
 1005              	.LVL92:
 1006 0038 0546     		mov	r5, r0
 1007              	.LVL93:
 182:Core/Src/robocontrol.c **** 
 183:Core/Src/robocontrol.c ****         Set_Servo_Angle(upperLegServo, theta1);
 1008              		.loc 1 183 9 is_stmt 1 discriminator 2 view .LVU220
 1009 003a 9DED020A 		vldr.32	s0, [sp, #8]
 1010 003e 3046     		mov	r0, r6
 1011 0040 FFF7FEFF 		bl	Set_Servo_Angle
 1012              	.LVL94:
 184:Core/Src/robocontrol.c ****         Set_Servo_Angle(lowerLegServo, theta2);
 1013              		.loc 1 184 9 discriminator 2 view .LVU221
 1014 0044 9DED030A 		vldr.32	s0, [sp, #12]
 1015 0048 2846     		mov	r0, r5
 1016 004a FFF7FEFF 		bl	Set_Servo_Angle
 1017              	.LVL95:
 1018              	.LBE13:
 165:Core/Src/robocontrol.c ****         float time = (leg == 0 || leg == 3) ? 0.0 : 0.5;
 1019              		.loc 1 165 45 discriminator 2 view .LVU222
 165:Core/Src/robocontrol.c ****         float time = (leg == 0 || leg == 3) ? 0.0 : 0.5;
 1020              		.loc 1 165 48 is_stmt 0 discriminator 2 view .LVU223
 1021 004e 0134     		adds	r4, r4, #1
 1022              	.LVL96:
 1023              	.L85:
 165:Core/Src/robocontrol.c ****         float time = (leg == 0 || leg == 3) ? 0.0 : 0.5;
 1024              		.loc 1 165 23 is_stmt 1 discriminator 1 view .LVU224
 165:Core/Src/robocontrol.c ****         float time = (leg == 0 || leg == 3) ? 0.0 : 0.5;
 1025              		.loc 1 165 5 is_stmt 0 discriminator 1 view .LVU225
 1026 0050 032C     		cmp	r4, #3
 1027 0052 13DC     		bgt	.L92
 1028              	.LBB14:
 166:Core/Src/robocontrol.c ****         float x, y;
 1029              		.loc 1 166 9 is_stmt 1 view .LVU226
ARM GAS  C:\Users\25750\AppData\Local\Temp\ccxGdRMs.s 			page 23


 166:Core/Src/robocontrol.c ****         float x, y;
 1030              		.loc 1 166 51 is_stmt 0 view .LVU227
 1031 0054 032C     		cmp	r4, #3
 1032 0056 18BF     		it	ne
 1033 0058 002C     		cmpne	r4, #0
 1034 005a 0CBF     		ite	eq
 1035 005c 0123     		moveq	r3, #1
 1036 005e 0023     		movne	r3, #0
 1037 0060 D2D1     		bne	.L90
 1038 0062 9FED070A 		vldr.32	s0, .L93
 1039              	.L86:
 1040              	.LVL97:
 167:Core/Src/robocontrol.c **** 
 1041              		.loc 1 167 9 is_stmt 1 discriminator 4 view .LVU228
 170:Core/Src/robocontrol.c ****             CalculateGait(1.0 - time, &x, &y);  // Â∑¶‰æßËÖøÂêéÁßª
 1042              		.loc 1 170 9 discriminator 4 view .LVU229
 170:Core/Src/robocontrol.c ****             CalculateGait(1.0 - time, &x, &y);  // Â∑¶‰æßËÖøÂêéÁßª
 1043              		.loc 1 170 12 is_stmt 0 discriminator 4 view .LVU230
 1044 0066 002B     		cmp	r3, #0
 1045 0068 D1D0     		beq	.L87
 171:Core/Src/robocontrol.c ****         } else {
 1046              		.loc 1 171 13 is_stmt 1 view .LVU231
 1047 006a 01A9     		add	r1, sp, #4
 1048 006c 6846     		mov	r0, sp
 1049 006e F7EE007A 		vmov.f32	s15, #1.0e+0
 1050 0072 37EEC00A 		vsub.f32	s0, s15, s0
 1051              	.LVL98:
 171:Core/Src/robocontrol.c ****         } else {
 1052              		.loc 1 171 13 is_stmt 0 view .LVU232
 1053 0076 FFF7FEFF 		bl	CalculateGait
 1054              	.LVL99:
 1055 007a CCE7     		b	.L88
 1056              	.L92:
 171:Core/Src/robocontrol.c ****         } else {
 1057              		.loc 1 171 13 view .LVU233
 1058              	.LBE14:
 1059              	.LBE12:
 185:Core/Src/robocontrol.c ****     }
 186:Core/Src/robocontrol.c **** }
 1060              		.loc 1 186 1 view .LVU234
 1061 007c 04B0     		add	sp, sp, #16
 1062              	.LCFI12:
 1063              		.cfi_def_cfa_offset 16
 1064              		@ sp needed
 1065 007e 70BD     		pop	{r4, r5, r6, pc}
 1066              	.LVL100:
 1067              	.L94:
 1068              		.loc 1 186 1 view .LVU235
 1069              		.align	2
 1070              	.L93:
 1071 0080 00000000 		.word	0
 1072              		.cfi_endproc
 1073              	.LFE158:
 1075              		.section	.text.Gait_Turn_Right,"ax",%progbits
 1076              		.align	1
 1077              		.global	Gait_Turn_Right
 1078              		.syntax unified
ARM GAS  C:\Users\25750\AppData\Local\Temp\ccxGdRMs.s 			page 24


 1079              		.thumb
 1080              		.thumb_func
 1082              	Gait_Turn_Right:
 1083              	.LFB159:
 187:Core/Src/robocontrol.c **** 
 188:Core/Src/robocontrol.c **** /*** Âè≥ËΩ¨Ê≠•ÊÄÅÊéßÂà∂ ***/
 189:Core/Src/robocontrol.c **** void Gait_Turn_Right(void) {
 1084              		.loc 1 189 28 is_stmt 1 view -0
 1085              		.cfi_startproc
 1086              		@ args = 0, pretend = 0, frame = 16
 1087              		@ frame_needed = 0, uses_anonymous_args = 0
 1088 0000 70B5     		push	{r4, r5, r6, lr}
 1089              	.LCFI13:
 1090              		.cfi_def_cfa_offset 16
 1091              		.cfi_offset 4, -16
 1092              		.cfi_offset 5, -12
 1093              		.cfi_offset 6, -8
 1094              		.cfi_offset 14, -4
 1095 0002 84B0     		sub	sp, sp, #16
 1096              	.LCFI14:
 1097              		.cfi_def_cfa_offset 32
 190:Core/Src/robocontrol.c ****     for (int leg = 0; leg < NUM_SERVOS / 2; leg++) {
 1098              		.loc 1 190 5 view .LVU237
 1099              	.LBB15:
 1100              		.loc 1 190 10 view .LVU238
 1101              	.LVL101:
 1102              		.loc 1 190 14 is_stmt 0 view .LVU239
 1103 0004 0024     		movs	r4, #0
 1104              		.loc 1 190 5 view .LVU240
 1105 0006 27E0     		b	.L96
 1106              	.LVL102:
 1107              	.L101:
 1108              	.LBB16:
 191:Core/Src/robocontrol.c ****         float time = (leg == 0 || leg == 3) ? 0.0 : 0.5;
 1109              		.loc 1 191 51 view .LVU241
 1110 0008 B6EE000A 		vmov.f32	s0, #5.0e-1
 1111 000c 2FE0     		b	.L97
 1112              	.LVL103:
 1113              	.L98:
 192:Core/Src/robocontrol.c ****         float x, y;
 193:Core/Src/robocontrol.c **** 
 194:Core/Src/robocontrol.c ****         // Â∑¶‰æßËÖøÂêëÂâçÔºåÂè≥‰æßËÖøÂêëÂêé
 195:Core/Src/robocontrol.c ****         if (leg == 0 || leg == 3) {
 196:Core/Src/robocontrol.c ****             CalculateGait(time, &x, &y);  // Â∑¶‰æßËÖøÂâçÁßª
 197:Core/Src/robocontrol.c ****         } else {
 198:Core/Src/robocontrol.c ****             CalculateGait(1.0 - time, &x, &y);  // Âè≥‰æßËÖøÂêéÁßª
 1114              		.loc 1 198 13 is_stmt 1 view .LVU242
 1115 000e 01A9     		add	r1, sp, #4
 1116 0010 6846     		mov	r0, sp
 1117 0012 F7EE007A 		vmov.f32	s15, #1.0e+0
 1118 0016 37EEC00A 		vsub.f32	s0, s15, s0
 1119              	.LVL104:
 1120              		.loc 1 198 13 is_stmt 0 view .LVU243
 1121 001a FFF7FEFF 		bl	CalculateGait
 1122              	.LVL105:
 1123              	.L99:
 199:Core/Src/robocontrol.c ****         }
ARM GAS  C:\Users\25750\AppData\Local\Temp\ccxGdRMs.s 			page 25


 200:Core/Src/robocontrol.c **** 
 201:Core/Src/robocontrol.c ****         float theta1, theta2;
 1124              		.loc 1 201 9 is_stmt 1 discriminator 2 view .LVU244
 202:Core/Src/robocontrol.c ****         InverseKinematics(x, y, &theta1, &theta2);
 1125              		.loc 1 202 9 discriminator 2 view .LVU245
 1126 001e 03A9     		add	r1, sp, #12
 1127 0020 02A8     		add	r0, sp, #8
 1128 0022 DDED010A 		vldr.32	s1, [sp, #4]
 1129 0026 9DED000A 		vldr.32	s0, [sp]
 1130 002a FFF7FEFF 		bl	InverseKinematics
 1131              	.LVL106:
 203:Core/Src/robocontrol.c **** 
 204:Core/Src/robocontrol.c ****         // Â±ÄÈÉ®ÂèòÈáèÂÆö‰πâÔºåÊéßÂà∂Â§ßËÖøÂíåÂ∞èËÖøËàµÊú∫
 205:Core/Src/robocontrol.c ****         ServoID upperLegServo = GetServoIDForLeg(leg, true);
 1132              		.loc 1 205 9 discriminator 2 view .LVU246
 1133              		.loc 1 205 33 is_stmt 0 discriminator 2 view .LVU247
 1134 002e 0121     		movs	r1, #1
 1135 0030 2046     		mov	r0, r4
 1136 0032 FFF7FEFF 		bl	GetServoIDForLeg
 1137              	.LVL107:
 1138 0036 0646     		mov	r6, r0
 1139              	.LVL108:
 206:Core/Src/robocontrol.c ****         ServoID lowerLegServo = GetServoIDForLeg(leg, false);
 1140              		.loc 1 206 9 is_stmt 1 discriminator 2 view .LVU248
 1141              		.loc 1 206 33 is_stmt 0 discriminator 2 view .LVU249
 1142 0038 0021     		movs	r1, #0
 1143 003a 2046     		mov	r0, r4
 1144 003c FFF7FEFF 		bl	GetServoIDForLeg
 1145              	.LVL109:
 1146 0040 0546     		mov	r5, r0
 1147              	.LVL110:
 207:Core/Src/robocontrol.c **** 
 208:Core/Src/robocontrol.c ****         Set_Servo_Angle(upperLegServo, theta1);
 1148              		.loc 1 208 9 is_stmt 1 discriminator 2 view .LVU250
 1149 0042 9DED020A 		vldr.32	s0, [sp, #8]
 1150 0046 3046     		mov	r0, r6
 1151 0048 FFF7FEFF 		bl	Set_Servo_Angle
 1152              	.LVL111:
 209:Core/Src/robocontrol.c ****         Set_Servo_Angle(lowerLegServo, theta2);
 1153              		.loc 1 209 9 discriminator 2 view .LVU251
 1154 004c 9DED030A 		vldr.32	s0, [sp, #12]
 1155 0050 2846     		mov	r0, r5
 1156 0052 FFF7FEFF 		bl	Set_Servo_Angle
 1157              	.LVL112:
 1158              	.LBE16:
 190:Core/Src/robocontrol.c ****         float time = (leg == 0 || leg == 3) ? 0.0 : 0.5;
 1159              		.loc 1 190 45 discriminator 2 view .LVU252
 190:Core/Src/robocontrol.c ****         float time = (leg == 0 || leg == 3) ? 0.0 : 0.5;
 1160              		.loc 1 190 48 is_stmt 0 discriminator 2 view .LVU253
 1161 0056 0134     		adds	r4, r4, #1
 1162              	.LVL113:
 1163              	.L96:
 190:Core/Src/robocontrol.c ****         float time = (leg == 0 || leg == 3) ? 0.0 : 0.5;
 1164              		.loc 1 190 23 is_stmt 1 discriminator 1 view .LVU254
 190:Core/Src/robocontrol.c ****         float time = (leg == 0 || leg == 3) ? 0.0 : 0.5;
 1165              		.loc 1 190 5 is_stmt 0 discriminator 1 view .LVU255
 1166 0058 032C     		cmp	r4, #3
ARM GAS  C:\Users\25750\AppData\Local\Temp\ccxGdRMs.s 			page 26


 1167 005a 0FDC     		bgt	.L103
 1168              	.LBB17:
 191:Core/Src/robocontrol.c ****         float x, y;
 1169              		.loc 1 191 9 is_stmt 1 view .LVU256
 191:Core/Src/robocontrol.c ****         float x, y;
 1170              		.loc 1 191 51 is_stmt 0 view .LVU257
 1171 005c 032C     		cmp	r4, #3
 1172 005e 18BF     		it	ne
 1173 0060 002C     		cmpne	r4, #0
 1174 0062 0CBF     		ite	eq
 1175 0064 0123     		moveq	r3, #1
 1176 0066 0023     		movne	r3, #0
 1177 0068 CED1     		bne	.L101
 1178 006a 9FED050A 		vldr.32	s0, .L104
 1179              	.L97:
 1180              	.LVL114:
 192:Core/Src/robocontrol.c **** 
 1181              		.loc 1 192 9 is_stmt 1 discriminator 4 view .LVU258
 195:Core/Src/robocontrol.c ****             CalculateGait(time, &x, &y);  // Â∑¶‰æßËÖøÂâçÁßª
 1182              		.loc 1 195 9 discriminator 4 view .LVU259
 195:Core/Src/robocontrol.c ****             CalculateGait(time, &x, &y);  // Â∑¶‰æßËÖøÂâçÁßª
 1183              		.loc 1 195 12 is_stmt 0 discriminator 4 view .LVU260
 1184 006e 002B     		cmp	r3, #0
 1185 0070 CDD0     		beq	.L98
 196:Core/Src/robocontrol.c ****         } else {
 1186              		.loc 1 196 13 is_stmt 1 view .LVU261
 1187 0072 01A9     		add	r1, sp, #4
 1188 0074 6846     		mov	r0, sp
 1189 0076 FFF7FEFF 		bl	CalculateGait
 1190              	.LVL115:
 196:Core/Src/robocontrol.c ****         } else {
 1191              		.loc 1 196 13 is_stmt 0 view .LVU262
 1192 007a D0E7     		b	.L99
 1193              	.L103:
 196:Core/Src/robocontrol.c ****         } else {
 1194              		.loc 1 196 13 view .LVU263
 1195              	.LBE17:
 1196              	.LBE15:
 210:Core/Src/robocontrol.c ****     }
 211:Core/Src/robocontrol.c **** }
 1197              		.loc 1 211 1 view .LVU264
 1198 007c 04B0     		add	sp, sp, #16
 1199              	.LCFI15:
 1200              		.cfi_def_cfa_offset 16
 1201              		@ sp needed
 1202 007e 70BD     		pop	{r4, r5, r6, pc}
 1203              	.LVL116:
 1204              	.L105:
 1205              		.loc 1 211 1 view .LVU265
 1206              		.align	2
 1207              	.L104:
 1208 0080 00000000 		.word	0
 1209              		.cfi_endproc
 1210              	.LFE159:
 1212              		.section	.text.Gait_March_In_Place,"ax",%progbits
 1213              		.align	1
 1214              		.global	Gait_March_In_Place
ARM GAS  C:\Users\25750\AppData\Local\Temp\ccxGdRMs.s 			page 27


 1215              		.syntax unified
 1216              		.thumb
 1217              		.thumb_func
 1219              	Gait_March_In_Place:
 1220              	.LFB160:
 212:Core/Src/robocontrol.c **** 
 213:Core/Src/robocontrol.c **** /*** ÂéüÂú∞Ë∏èÊ≠•Ê≠•ÊÄÅÊéßÂà∂ ***/
 214:Core/Src/robocontrol.c **** void Gait_March_In_Place(void) {
 1221              		.loc 1 214 32 is_stmt 1 view -0
 1222              		.cfi_startproc
 1223              		@ args = 0, pretend = 0, frame = 16
 1224              		@ frame_needed = 0, uses_anonymous_args = 0
 1225 0000 70B5     		push	{r4, r5, r6, lr}
 1226              	.LCFI16:
 1227              		.cfi_def_cfa_offset 16
 1228              		.cfi_offset 4, -16
 1229              		.cfi_offset 5, -12
 1230              		.cfi_offset 6, -8
 1231              		.cfi_offset 14, -4
 1232 0002 84B0     		sub	sp, sp, #16
 1233              	.LCFI17:
 1234              		.cfi_def_cfa_offset 32
 215:Core/Src/robocontrol.c ****     for (int leg = 0; leg < NUM_SERVOS / 2; leg++) {
 1235              		.loc 1 215 5 view .LVU267
 1236              	.LBB18:
 1237              		.loc 1 215 10 view .LVU268
 1238              	.LVL117:
 1239              		.loc 1 215 14 is_stmt 0 view .LVU269
 1240 0004 0024     		movs	r4, #0
 1241              		.loc 1 215 5 view .LVU270
 1242 0006 22E0     		b	.L107
 1243              	.LVL118:
 1244              	.L110:
 1245              	.LBB19:
 216:Core/Src/robocontrol.c ****         float time = (leg == 0 || leg == 3) ? 0.0 : 0.5;
 1246              		.loc 1 216 51 view .LVU271
 1247 0008 B6EE000A 		vmov.f32	s0, #5.0e-1
 1248              	.L108:
 1249              	.LVL119:
 217:Core/Src/robocontrol.c ****         float x, y;
 1250              		.loc 1 217 9 is_stmt 1 discriminator 4 view .LVU272
 218:Core/Src/robocontrol.c **** 
 219:Core/Src/robocontrol.c ****         CalculateGait(time, &x, &y);  // Âú®ÂéüÂú∞ÁßªÂä®
 1251              		.loc 1 219 9 discriminator 4 view .LVU273
 1252 000c 01A9     		add	r1, sp, #4
 1253 000e 6846     		mov	r0, sp
 1254 0010 FFF7FEFF 		bl	CalculateGait
 1255              	.LVL120:
 220:Core/Src/robocontrol.c **** 
 221:Core/Src/robocontrol.c ****         float theta1, theta2;
 1256              		.loc 1 221 9 discriminator 4 view .LVU274
 222:Core/Src/robocontrol.c ****         InverseKinematics(x, y, &theta1, &theta2);
 1257              		.loc 1 222 9 discriminator 4 view .LVU275
 1258 0014 03A9     		add	r1, sp, #12
 1259 0016 02A8     		add	r0, sp, #8
 1260 0018 DDED010A 		vldr.32	s1, [sp, #4]
 1261 001c 9DED000A 		vldr.32	s0, [sp]
ARM GAS  C:\Users\25750\AppData\Local\Temp\ccxGdRMs.s 			page 28


 1262 0020 FFF7FEFF 		bl	InverseKinematics
 1263              	.LVL121:
 223:Core/Src/robocontrol.c **** 
 224:Core/Src/robocontrol.c ****         // Â±ÄÈÉ®ÂèòÈáèÂÆö‰πâÔºåÊéßÂà∂Â§ßËÖøÂíåÂ∞èËÖøËàµÊú∫
 225:Core/Src/robocontrol.c ****         ServoID upperLegServo = GetServoIDForLeg(leg, true);
 1264              		.loc 1 225 9 discriminator 4 view .LVU276
 1265              		.loc 1 225 33 is_stmt 0 discriminator 4 view .LVU277
 1266 0024 0121     		movs	r1, #1
 1267 0026 2046     		mov	r0, r4
 1268 0028 FFF7FEFF 		bl	GetServoIDForLeg
 1269              	.LVL122:
 1270 002c 0646     		mov	r6, r0
 1271              	.LVL123:
 226:Core/Src/robocontrol.c ****         ServoID lowerLegServo = GetServoIDForLeg(leg, false);
 1272              		.loc 1 226 9 is_stmt 1 discriminator 4 view .LVU278
 1273              		.loc 1 226 33 is_stmt 0 discriminator 4 view .LVU279
 1274 002e 0021     		movs	r1, #0
 1275 0030 2046     		mov	r0, r4
 1276 0032 FFF7FEFF 		bl	GetServoIDForLeg
 1277              	.LVL124:
 1278 0036 0546     		mov	r5, r0
 1279              	.LVL125:
 227:Core/Src/robocontrol.c **** 
 228:Core/Src/robocontrol.c ****         Set_Servo_Angle(upperLegServo, theta1);  // ÊéßÂà∂Â§ßËÖøËàµÊú∫
 1280              		.loc 1 228 9 is_stmt 1 discriminator 4 view .LVU280
 1281 0038 9DED020A 		vldr.32	s0, [sp, #8]
 1282 003c 3046     		mov	r0, r6
 1283 003e FFF7FEFF 		bl	Set_Servo_Angle
 1284              	.LVL126:
 229:Core/Src/robocontrol.c ****         Set_Servo_Angle(lowerLegServo, theta2);  // ÊéßÂà∂Â∞èËÖøËàµÊú∫
 1285              		.loc 1 229 9 discriminator 4 view .LVU281
 1286 0042 9DED030A 		vldr.32	s0, [sp, #12]
 1287 0046 2846     		mov	r0, r5
 1288 0048 FFF7FEFF 		bl	Set_Servo_Angle
 1289              	.LVL127:
 1290              	.LBE19:
 215:Core/Src/robocontrol.c ****         float time = (leg == 0 || leg == 3) ? 0.0 : 0.5;
 1291              		.loc 1 215 45 discriminator 4 view .LVU282
 215:Core/Src/robocontrol.c ****         float time = (leg == 0 || leg == 3) ? 0.0 : 0.5;
 1292              		.loc 1 215 48 is_stmt 0 discriminator 4 view .LVU283
 1293 004c 0134     		adds	r4, r4, #1
 1294              	.LVL128:
 1295              	.L107:
 215:Core/Src/robocontrol.c ****         float time = (leg == 0 || leg == 3) ? 0.0 : 0.5;
 1296              		.loc 1 215 23 is_stmt 1 discriminator 2 view .LVU284
 215:Core/Src/robocontrol.c ****         float time = (leg == 0 || leg == 3) ? 0.0 : 0.5;
 1297              		.loc 1 215 5 is_stmt 0 discriminator 2 view .LVU285
 1298 004e 032C     		cmp	r4, #3
 1299 0050 06DC     		bgt	.L112
 1300              	.LBB20:
 216:Core/Src/robocontrol.c ****         float x, y;
 1301              		.loc 1 216 9 is_stmt 1 view .LVU286
 216:Core/Src/robocontrol.c ****         float x, y;
 1302              		.loc 1 216 51 is_stmt 0 view .LVU287
 1303 0052 032C     		cmp	r4, #3
 1304 0054 18BF     		it	ne
 1305 0056 002C     		cmpne	r4, #0
ARM GAS  C:\Users\25750\AppData\Local\Temp\ccxGdRMs.s 			page 29


 1306 0058 D6D1     		bne	.L110
 1307 005a 9FED020A 		vldr.32	s0, .L113
 1308 005e D5E7     		b	.L108
 1309              	.L112:
 1310              	.LBE20:
 1311              	.LBE18:
 230:Core/Src/robocontrol.c ****     }
 231:Core/Src/robocontrol.c **** }...
 1312              		.loc 1 231 1 view .LVU288
 1313 0060 04B0     		add	sp, sp, #16
 1314              	.LCFI18:
 1315              		.cfi_def_cfa_offset 16
 1316              		@ sp needed
 1317 0062 70BD     		pop	{r4, r5, r6, pc}
 1318              	.LVL129:
 1319              	.L114:
 1320              		.loc 1 231 1 view .LVU289
 1321              		.align	2
 1322              	.L113:
 1323 0064 00000000 		.word	0
 1324              		.cfi_endproc
 1325              	.LFE160:
 1327              		.global	current_action
 1328              		.section	.bss.current_action,"aw",%nobits
 1329              		.set	.LANCHOR0,. + 0
 1332              	current_action:
 1333 0000 00       		.space	1
 1334              		.text
 1335              	.Letext0:
 1336              		.file 2 "e:\\clion\\gcc-arm-none-eabi\\arm-none-eabi\\include\\machine\\_default_types.h"
 1337              		.file 3 "e:\\clion\\gcc-arm-none-eabi\\arm-none-eabi\\include\\sys\\_stdint.h"
 1338              		.file 4 "Core/Inc/servo_control.h"
 1339              		.file 5 "Core/Inc/robocontrol.h"
 1340              		.file 6 "Middlewares/Third_Party/FreeRTOS/Source/portable/GCC/ARM_CM4F/portmacro.h"
 1341              		.file 7 "Middlewares/Third_Party/FreeRTOS/Source/include/task.h"
 1342              		.file 8 "e:\\clion\\gcc-arm-none-eabi\\arm-none-eabi\\include\\math.h"
ARM GAS  C:\Users\25750\AppData\Local\Temp\ccxGdRMs.s 			page 30

